ARM GAS  /tmp/cccAeLQY.s 			page 1


   1              		.cpu cortex-m4
   2              		.arch armv7e-m
   3              		.fpu fpv4-sp-d16
   4              		.eabi_attribute 27, 1
   5              		.eabi_attribute 28, 1
   6              		.eabi_attribute 20, 1
   7              		.eabi_attribute 21, 1
   8              		.eabi_attribute 23, 3
   9              		.eabi_attribute 24, 1
  10              		.eabi_attribute 25, 1
  11              		.eabi_attribute 26, 1
  12              		.eabi_attribute 30, 1
  13              		.eabi_attribute 34, 1
  14              		.eabi_attribute 18, 4
  15              		.file	"stm32f4xx_it.c"
  16              		.text
  17              	.Ltext0:
  18              		.cfi_sections	.debug_frame
  19              		.file 1 "STM32F411/Peripherals/src/stm32f4xx_it.c"
  20              		.section	.text.NMI_Handler,"ax",%progbits
  21              		.align	1
  22              		.global	NMI_Handler
  23              		.syntax unified
  24              		.thumb
  25              		.thumb_func
  27              	NMI_Handler:
  28              	.LFB134:
   1:STM32F411/Peripherals/src/stm32f4xx_it.c **** /* Includes ------------------------------------------------------------------*/
   2:STM32F411/Peripherals/src/stm32f4xx_it.c **** #include "stm32f4xx_hal.h"
   3:STM32F411/Peripherals/src/stm32f4xx_it.c **** #include "stm32f4xx_it.h"
   4:STM32F411/Peripherals/src/stm32f4xx_it.c **** /* Private includes ----------------------------------------------------------*/
   5:STM32F411/Peripherals/src/stm32f4xx_it.c **** 
   6:STM32F411/Peripherals/src/stm32f4xx_it.c **** /* Private typedef -----------------------------------------------------------*/
   7:STM32F411/Peripherals/src/stm32f4xx_it.c **** 
   8:STM32F411/Peripherals/src/stm32f4xx_it.c **** /* Private define ------------------------------------------------------------*/
   9:STM32F411/Peripherals/src/stm32f4xx_it.c **** 
  10:STM32F411/Peripherals/src/stm32f4xx_it.c **** /* Private macro -------------------------------------------------------------*/
  11:STM32F411/Peripherals/src/stm32f4xx_it.c **** 
  12:STM32F411/Peripherals/src/stm32f4xx_it.c **** /* Private variables ---------------------------------------------------------*/
  13:STM32F411/Peripherals/src/stm32f4xx_it.c **** 
  14:STM32F411/Peripherals/src/stm32f4xx_it.c **** /* Private function prototypes -----------------------------------------------*/
  15:STM32F411/Peripherals/src/stm32f4xx_it.c **** 
  16:STM32F411/Peripherals/src/stm32f4xx_it.c **** /* Private user code ---------------------------------------------------------*/
  17:STM32F411/Peripherals/src/stm32f4xx_it.c **** 
  18:STM32F411/Peripherals/src/stm32f4xx_it.c **** /* External variables --------------------------------------------------------*/
  19:STM32F411/Peripherals/src/stm32f4xx_it.c **** extern PCD_HandleTypeDef hpcd_USB_OTG_FS;
  20:STM32F411/Peripherals/src/stm32f4xx_it.c **** extern TIM_HandleTypeDef htim1;
  21:STM32F411/Peripherals/src/stm32f4xx_it.c **** 
  22:STM32F411/Peripherals/src/stm32f4xx_it.c **** /******************************************************************************/
  23:STM32F411/Peripherals/src/stm32f4xx_it.c **** /*           Cortex-M4 Processor Interruption and Exception Handlers          */
  24:STM32F411/Peripherals/src/stm32f4xx_it.c **** /******************************************************************************/
  25:STM32F411/Peripherals/src/stm32f4xx_it.c **** /**
  26:STM32F411/Peripherals/src/stm32f4xx_it.c ****   * @brief This function handles Non maskable interrupt.
  27:STM32F411/Peripherals/src/stm32f4xx_it.c ****   */
  28:STM32F411/Peripherals/src/stm32f4xx_it.c **** void NMI_Handler(void)
  29:STM32F411/Peripherals/src/stm32f4xx_it.c **** {
  29              		.loc 1 29 1 view -0
ARM GAS  /tmp/cccAeLQY.s 			page 2


  30              		.cfi_startproc
  31              		@ Volatile: function does not return.
  32              		@ args = 0, pretend = 0, frame = 0
  33              		@ frame_needed = 0, uses_anonymous_args = 0
  34 0000 08B5     		push	{r3, lr}
  35              	.LCFI0:
  36              		.cfi_def_cfa_offset 8
  37              		.cfi_offset 3, -8
  38              		.cfi_offset 14, -4
  30:STM32F411/Peripherals/src/stm32f4xx_it.c ****   HAL_RCC_NMI_IRQHandler();
  39              		.loc 1 30 3 view .LVU1
  40 0002 FFF7FEFF 		bl	HAL_RCC_NMI_IRQHandler
  41              	.LVL0:
  42              	.L2:
  31:STM32F411/Peripherals/src/stm32f4xx_it.c ****    while (1)
  43              		.loc 1 31 4 view .LVU2
  32:STM32F411/Peripherals/src/stm32f4xx_it.c ****   {
  33:STM32F411/Peripherals/src/stm32f4xx_it.c ****   }
  44              		.loc 1 33 3 view .LVU3
  31:STM32F411/Peripherals/src/stm32f4xx_it.c ****    while (1)
  45              		.loc 1 31 10 view .LVU4
  46 0006 FEE7     		b	.L2
  47              		.cfi_endproc
  48              	.LFE134:
  50              		.section	.text.HardFault_Handler,"ax",%progbits
  51              		.align	1
  52              		.global	HardFault_Handler
  53              		.syntax unified
  54              		.thumb
  55              		.thumb_func
  57              	HardFault_Handler:
  58              	.LFB135:
  34:STM32F411/Peripherals/src/stm32f4xx_it.c **** }
  35:STM32F411/Peripherals/src/stm32f4xx_it.c **** 
  36:STM32F411/Peripherals/src/stm32f4xx_it.c **** /**
  37:STM32F411/Peripherals/src/stm32f4xx_it.c ****   * @brief This function handles Hard fault interrupt.
  38:STM32F411/Peripherals/src/stm32f4xx_it.c ****   */
  39:STM32F411/Peripherals/src/stm32f4xx_it.c **** void HardFault_Handler(void)
  40:STM32F411/Peripherals/src/stm32f4xx_it.c **** {
  59              		.loc 1 40 1 view -0
  60              		.cfi_startproc
  61              		@ Volatile: function does not return.
  62              		@ args = 0, pretend = 0, frame = 0
  63              		@ frame_needed = 0, uses_anonymous_args = 0
  64              		@ link register save eliminated.
  65              	.L5:
  41:STM32F411/Peripherals/src/stm32f4xx_it.c ****   while (1)
  66              		.loc 1 41 3 view .LVU6
  42:STM32F411/Peripherals/src/stm32f4xx_it.c ****   {
  43:STM32F411/Peripherals/src/stm32f4xx_it.c ****   }
  67              		.loc 1 43 3 view .LVU7
  41:STM32F411/Peripherals/src/stm32f4xx_it.c ****   while (1)
  68              		.loc 1 41 9 view .LVU8
  69 0000 FEE7     		b	.L5
  70              		.cfi_endproc
  71              	.LFE135:
  73              		.section	.text.MemManage_Handler,"ax",%progbits
ARM GAS  /tmp/cccAeLQY.s 			page 3


  74              		.align	1
  75              		.global	MemManage_Handler
  76              		.syntax unified
  77              		.thumb
  78              		.thumb_func
  80              	MemManage_Handler:
  81              	.LFB136:
  44:STM32F411/Peripherals/src/stm32f4xx_it.c **** }
  45:STM32F411/Peripherals/src/stm32f4xx_it.c **** 
  46:STM32F411/Peripherals/src/stm32f4xx_it.c **** /**
  47:STM32F411/Peripherals/src/stm32f4xx_it.c ****   * @brief This function handles Memory management fault.
  48:STM32F411/Peripherals/src/stm32f4xx_it.c ****   */
  49:STM32F411/Peripherals/src/stm32f4xx_it.c **** void MemManage_Handler(void)
  50:STM32F411/Peripherals/src/stm32f4xx_it.c **** {
  82              		.loc 1 50 1 view -0
  83              		.cfi_startproc
  84              		@ Volatile: function does not return.
  85              		@ args = 0, pretend = 0, frame = 0
  86              		@ frame_needed = 0, uses_anonymous_args = 0
  87              		@ link register save eliminated.
  88              	.L7:
  51:STM32F411/Peripherals/src/stm32f4xx_it.c ****   while (1)
  89              		.loc 1 51 3 view .LVU10
  52:STM32F411/Peripherals/src/stm32f4xx_it.c ****   {
  53:STM32F411/Peripherals/src/stm32f4xx_it.c ****   }
  90              		.loc 1 53 3 view .LVU11
  51:STM32F411/Peripherals/src/stm32f4xx_it.c ****   while (1)
  91              		.loc 1 51 9 view .LVU12
  92 0000 FEE7     		b	.L7
  93              		.cfi_endproc
  94              	.LFE136:
  96              		.section	.text.BusFault_Handler,"ax",%progbits
  97              		.align	1
  98              		.global	BusFault_Handler
  99              		.syntax unified
 100              		.thumb
 101              		.thumb_func
 103              	BusFault_Handler:
 104              	.LFB137:
  54:STM32F411/Peripherals/src/stm32f4xx_it.c **** }
  55:STM32F411/Peripherals/src/stm32f4xx_it.c **** 
  56:STM32F411/Peripherals/src/stm32f4xx_it.c **** /**
  57:STM32F411/Peripherals/src/stm32f4xx_it.c ****   * @brief This function handles Pre-fetch fault, memory access fault.
  58:STM32F411/Peripherals/src/stm32f4xx_it.c ****   */
  59:STM32F411/Peripherals/src/stm32f4xx_it.c **** void BusFault_Handler(void)
  60:STM32F411/Peripherals/src/stm32f4xx_it.c **** {
 105              		.loc 1 60 1 view -0
 106              		.cfi_startproc
 107              		@ Volatile: function does not return.
 108              		@ args = 0, pretend = 0, frame = 0
 109              		@ frame_needed = 0, uses_anonymous_args = 0
 110              		@ link register save eliminated.
 111              	.L9:
  61:STM32F411/Peripherals/src/stm32f4xx_it.c ****   while (1)
 112              		.loc 1 61 3 view .LVU14
  62:STM32F411/Peripherals/src/stm32f4xx_it.c ****   {
  63:STM32F411/Peripherals/src/stm32f4xx_it.c ****   }
ARM GAS  /tmp/cccAeLQY.s 			page 4


 113              		.loc 1 63 3 view .LVU15
  61:STM32F411/Peripherals/src/stm32f4xx_it.c ****   while (1)
 114              		.loc 1 61 9 view .LVU16
 115 0000 FEE7     		b	.L9
 116              		.cfi_endproc
 117              	.LFE137:
 119              		.section	.text.UsageFault_Handler,"ax",%progbits
 120              		.align	1
 121              		.global	UsageFault_Handler
 122              		.syntax unified
 123              		.thumb
 124              		.thumb_func
 126              	UsageFault_Handler:
 127              	.LFB138:
  64:STM32F411/Peripherals/src/stm32f4xx_it.c **** }
  65:STM32F411/Peripherals/src/stm32f4xx_it.c **** 
  66:STM32F411/Peripherals/src/stm32f4xx_it.c **** /**
  67:STM32F411/Peripherals/src/stm32f4xx_it.c ****   * @brief This function handles Undefined instruction or illegal state.
  68:STM32F411/Peripherals/src/stm32f4xx_it.c ****   */
  69:STM32F411/Peripherals/src/stm32f4xx_it.c **** void UsageFault_Handler(void)
  70:STM32F411/Peripherals/src/stm32f4xx_it.c **** {
 128              		.loc 1 70 1 view -0
 129              		.cfi_startproc
 130              		@ Volatile: function does not return.
 131              		@ args = 0, pretend = 0, frame = 0
 132              		@ frame_needed = 0, uses_anonymous_args = 0
 133              		@ link register save eliminated.
 134              	.L11:
  71:STM32F411/Peripherals/src/stm32f4xx_it.c ****   while (1)
 135              		.loc 1 71 3 view .LVU18
  72:STM32F411/Peripherals/src/stm32f4xx_it.c ****   {
  73:STM32F411/Peripherals/src/stm32f4xx_it.c ****   }
 136              		.loc 1 73 3 view .LVU19
  71:STM32F411/Peripherals/src/stm32f4xx_it.c ****   while (1)
 137              		.loc 1 71 9 view .LVU20
 138 0000 FEE7     		b	.L11
 139              		.cfi_endproc
 140              	.LFE138:
 142              		.section	.text.DebugMon_Handler,"ax",%progbits
 143              		.align	1
 144              		.global	DebugMon_Handler
 145              		.syntax unified
 146              		.thumb
 147              		.thumb_func
 149              	DebugMon_Handler:
 150              	.LFB139:
  74:STM32F411/Peripherals/src/stm32f4xx_it.c **** }
  75:STM32F411/Peripherals/src/stm32f4xx_it.c **** 
  76:STM32F411/Peripherals/src/stm32f4xx_it.c **** /**
  77:STM32F411/Peripherals/src/stm32f4xx_it.c ****   * @brief This function handles Debug monitor.
  78:STM32F411/Peripherals/src/stm32f4xx_it.c ****   */
  79:STM32F411/Peripherals/src/stm32f4xx_it.c **** void DebugMon_Handler(void)
  80:STM32F411/Peripherals/src/stm32f4xx_it.c **** {
 151              		.loc 1 80 1 view -0
 152              		.cfi_startproc
 153              		@ args = 0, pretend = 0, frame = 0
 154              		@ frame_needed = 0, uses_anonymous_args = 0
ARM GAS  /tmp/cccAeLQY.s 			page 5


 155              		@ link register save eliminated.
  81:STM32F411/Peripherals/src/stm32f4xx_it.c **** }
 156              		.loc 1 81 1 view .LVU22
 157 0000 7047     		bx	lr
 158              		.cfi_endproc
 159              	.LFE139:
 161              		.section	.text.TIM1_UP_TIM10_IRQHandler,"ax",%progbits
 162              		.align	1
 163              		.global	TIM1_UP_TIM10_IRQHandler
 164              		.syntax unified
 165              		.thumb
 166              		.thumb_func
 168              	TIM1_UP_TIM10_IRQHandler:
 169              	.LFB140:
  82:STM32F411/Peripherals/src/stm32f4xx_it.c **** 
  83:STM32F411/Peripherals/src/stm32f4xx_it.c **** /******************************************************************************/
  84:STM32F411/Peripherals/src/stm32f4xx_it.c **** /* STM32F4xx Peripheral Interrupt Handlers                                    */
  85:STM32F411/Peripherals/src/stm32f4xx_it.c **** /* Add here the Interrupt Handlers for the used peripherals.                  */
  86:STM32F411/Peripherals/src/stm32f4xx_it.c **** /* For the available peripheral interrupt handler names,                      */
  87:STM32F411/Peripherals/src/stm32f4xx_it.c **** /* please refer to the startup file (startup_stm32f4xx.s).                    */
  88:STM32F411/Peripherals/src/stm32f4xx_it.c **** /******************************************************************************/
  89:STM32F411/Peripherals/src/stm32f4xx_it.c **** 
  90:STM32F411/Peripherals/src/stm32f4xx_it.c **** /**
  91:STM32F411/Peripherals/src/stm32f4xx_it.c ****   * @brief This function handles TIM1 update interrupt and TIM10 global interrupt.
  92:STM32F411/Peripherals/src/stm32f4xx_it.c ****   */
  93:STM32F411/Peripherals/src/stm32f4xx_it.c **** void TIM1_UP_TIM10_IRQHandler(void)
  94:STM32F411/Peripherals/src/stm32f4xx_it.c **** {
 170              		.loc 1 94 1 view -0
 171              		.cfi_startproc
 172              		@ args = 0, pretend = 0, frame = 0
 173              		@ frame_needed = 0, uses_anonymous_args = 0
 174 0000 08B5     		push	{r3, lr}
 175              	.LCFI1:
 176              		.cfi_def_cfa_offset 8
 177              		.cfi_offset 3, -8
 178              		.cfi_offset 14, -4
  95:STM32F411/Peripherals/src/stm32f4xx_it.c ****   HAL_TIM_IRQHandler(&htim1);
 179              		.loc 1 95 3 view .LVU24
 180 0002 0248     		ldr	r0, .L15
 181 0004 FFF7FEFF 		bl	HAL_TIM_IRQHandler
 182              	.LVL1:
  96:STM32F411/Peripherals/src/stm32f4xx_it.c **** }
 183              		.loc 1 96 1 is_stmt 0 view .LVU25
 184 0008 08BD     		pop	{r3, pc}
 185              	.L16:
 186 000a 00BF     		.align	2
 187              	.L15:
 188 000c 00000000 		.word	htim1
 189              		.cfi_endproc
 190              	.LFE140:
 192              		.section	.text.OTG_FS_IRQHandler,"ax",%progbits
 193              		.align	1
 194              		.global	OTG_FS_IRQHandler
 195              		.syntax unified
 196              		.thumb
 197              		.thumb_func
 199              	OTG_FS_IRQHandler:
ARM GAS  /tmp/cccAeLQY.s 			page 6


 200              	.LFB141:
  97:STM32F411/Peripherals/src/stm32f4xx_it.c **** 
  98:STM32F411/Peripherals/src/stm32f4xx_it.c **** /**
  99:STM32F411/Peripherals/src/stm32f4xx_it.c ****   * @brief This function handles USB On The Go FS global interrupt.
 100:STM32F411/Peripherals/src/stm32f4xx_it.c ****   */
 101:STM32F411/Peripherals/src/stm32f4xx_it.c **** void OTG_FS_IRQHandler(void)
 102:STM32F411/Peripherals/src/stm32f4xx_it.c **** {
 201              		.loc 1 102 1 is_stmt 1 view -0
 202              		.cfi_startproc
 203              		@ args = 0, pretend = 0, frame = 0
 204              		@ frame_needed = 0, uses_anonymous_args = 0
 205 0000 08B5     		push	{r3, lr}
 206              	.LCFI2:
 207              		.cfi_def_cfa_offset 8
 208              		.cfi_offset 3, -8
 209              		.cfi_offset 14, -4
 103:STM32F411/Peripherals/src/stm32f4xx_it.c ****   HAL_PCD_IRQHandler(&hpcd_USB_OTG_FS);
 210              		.loc 1 103 3 view .LVU27
 211 0002 0248     		ldr	r0, .L19
 212 0004 FFF7FEFF 		bl	HAL_PCD_IRQHandler
 213              	.LVL2:
 104:STM32F411/Peripherals/src/stm32f4xx_it.c **** }
 214              		.loc 1 104 1 is_stmt 0 view .LVU28
 215 0008 08BD     		pop	{r3, pc}
 216              	.L20:
 217 000a 00BF     		.align	2
 218              	.L19:
 219 000c 00000000 		.word	hpcd_USB_OTG_FS
 220              		.cfi_endproc
 221              	.LFE141:
 223              		.text
 224              	.Letext0:
 225              		.file 2 "/usr/lib/gcc/arm-none-eabi/13.2.1/include/stdint.h"
 226              		.file 3 "STM32F411/Drivers/CMSIS/Device/ST/STM32F4xx/Include/stm32f411xe.h"
 227              		.file 4 "STM32F411/Drivers/STM32F4xx_HAL_Driver/Inc/stm32f4xx_hal_def.h"
 228              		.file 5 "STM32F411/Drivers/STM32F4xx_HAL_Driver/Inc/stm32f4xx_hal_dma.h"
 229              		.file 6 "STM32F411/Drivers/STM32F4xx_HAL_Driver/Inc/stm32f4xx_hal_tim.h"
 230              		.file 7 "STM32F411/Drivers/STM32F4xx_HAL_Driver/Inc/stm32f4xx_ll_usb.h"
 231              		.file 8 "STM32F411/Drivers/STM32F4xx_HAL_Driver/Inc/stm32f4xx_hal_pcd.h"
 232              		.file 9 "STM32F411/Drivers/STM32F4xx_HAL_Driver/Inc/stm32f4xx_hal_rcc.h"
ARM GAS  /tmp/cccAeLQY.s 			page 7

