ARM GAS  /tmp/ccY27v0b.s 			page 1


   1              		.cpu cortex-m4
   2              		.arch armv7e-m
   3              		.fpu fpv4-sp-d16
   4              		.eabi_attribute 27, 1
   5              		.eabi_attribute 28, 1
   6              		.eabi_attribute 20, 1
   7              		.eabi_attribute 21, 1
   8              		.eabi_attribute 23, 3
   9              		.eabi_attribute 24, 1
  10              		.eabi_attribute 25, 1
  11              		.eabi_attribute 26, 1
  12              		.eabi_attribute 30, 1
  13              		.eabi_attribute 34, 1
  14              		.eabi_attribute 18, 4
  15              		.file	"task_mgr.c"
  16              		.text
  17              	.Ltext0:
  18              		.cfi_sections	.debug_frame
  19              		.file 1 "App/utils/src/task_mgr.c"
  20              		.section	.rodata.taskMgr_initMcu.str1.4,"aMS",%progbits,1
  21              		.align	2
  22              	.LC0:
  23 0000 50657269 		.ascii	"Peripherals initialized\000"
  23      70686572 
  23      616C7320 
  23      696E6974 
  23      69616C69 
  24              		.section	.text.taskMgr_initMcu,"ax",%progbits
  25              		.align	1
  26              		.global	taskMgr_initMcu
  27              		.syntax unified
  28              		.thumb
  29              		.thumb_func
  31              	taskMgr_initMcu:
  32              	.LFB142:
   1:App/utils/src/task_mgr.c **** /* Includes ------------------------------------------------------------------*/
   2:App/utils/src/task_mgr.c **** #include "crc.h"
   3:App/utils/src/task_mgr.c **** #include "spi.h"
   4:App/utils/src/task_mgr.c **** #include "gpio.h"
   5:App/utils/src/task_mgr.c **** #include "clock.h"
   6:App/utils/src/task_mgr.c **** #include "cmsis_os.h"
   7:App/utils/src/task_mgr.c **** 
   8:App/utils/src/task_mgr.c **** #include "utils.h"
   9:App/utils/src/task_mgr.c **** 
  10:App/utils/src/task_mgr.c **** #include "usb_mgr.h"
  11:App/utils/src/task_mgr.c **** /* Defines -------------------------------------------------------------------*/
  12:App/utils/src/task_mgr.c **** 
  13:App/utils/src/task_mgr.c **** /* Private Typedef -----------------------------------------------------------*/
  14:App/utils/src/task_mgr.c **** 
  15:App/utils/src/task_mgr.c **** /* Private Variable Declaration ----------------------------------------------*/
  16:App/utils/src/task_mgr.c **** 
  17:App/utils/src/task_mgr.c **** /* Private Function Declaration ----------------------------------------------*/
  18:App/utils/src/task_mgr.c **** 
  19:App/utils/src/task_mgr.c **** /* Public Function Defnition -------------------------------------------------*/
  20:App/utils/src/task_mgr.c **** void taskMgr_initMcu( void )
  21:App/utils/src/task_mgr.c **** {
  33              		.loc 1 21 1 view -0
ARM GAS  /tmp/ccY27v0b.s 			page 2


  34              		.cfi_startproc
  35              		@ args = 0, pretend = 0, frame = 0
  36              		@ frame_needed = 0, uses_anonymous_args = 0
  37 0000 08B5     		push	{r3, lr}
  38              	.LCFI0:
  39              		.cfi_def_cfa_offset 8
  40              		.cfi_offset 3, -8
  41              		.cfi_offset 14, -4
  22:App/utils/src/task_mgr.c ****     /* Reset of all peripherals, Initializes the Flash interface and the Systick. */
  23:App/utils/src/task_mgr.c ****     HAL_Init();
  42              		.loc 1 23 5 view .LVU1
  43 0002 FFF7FEFF 		bl	HAL_Init
  44              	.LVL0:
  24:App/utils/src/task_mgr.c **** 
  25:App/utils/src/task_mgr.c ****     /* Configure the system clock */
  26:App/utils/src/task_mgr.c ****     SystemClock_Config();
  45              		.loc 1 26 5 view .LVU2
  46 0006 FFF7FEFF 		bl	SystemClock_Config
  47              	.LVL1:
  27:App/utils/src/task_mgr.c **** 
  28:App/utils/src/task_mgr.c ****     /* Initialize all configured peripherals */
  29:App/utils/src/task_mgr.c ****     MX_GPIO_Init();
  48              		.loc 1 29 5 view .LVU3
  49 000a FFF7FEFF 		bl	MX_GPIO_Init
  50              	.LVL2:
  30:App/utils/src/task_mgr.c ****     MX_SPI1_Init();
  51              		.loc 1 30 5 view .LVU4
  52 000e FFF7FEFF 		bl	MX_SPI1_Init
  53              	.LVL3:
  31:App/utils/src/task_mgr.c ****     MX_CRC_Init();
  54              		.loc 1 31 5 view .LVU5
  55 0012 FFF7FEFF 		bl	MX_CRC_Init
  56              	.LVL4:
  32:App/utils/src/task_mgr.c **** 
  33:App/utils/src/task_mgr.c ****     utils_printLog("Peripherals initialized");
  57              		.loc 1 33 5 view .LVU6
  58 0016 0248     		ldr	r0, .L3
  59 0018 FFF7FEFF 		bl	utils_printLog
  60              	.LVL5:
  34:App/utils/src/task_mgr.c **** }
  61              		.loc 1 34 1 is_stmt 0 view .LVU7
  62 001c 08BD     		pop	{r3, pc}
  63              	.L4:
  64 001e 00BF     		.align	2
  65              	.L3:
  66 0020 00000000 		.word	.LC0
  67              		.cfi_endproc
  68              	.LFE142:
  70              		.section	.rodata.taskMgr_queueTask.str1.4,"aMS",%progbits,1
  71              		.align	2
  72              	.LC1:
  73 0000 7461736B 		.ascii	"task queued\000"
  73      20717565 
  73      75656400 
  74              		.section	.text.taskMgr_queueTask,"ax",%progbits
  75              		.align	1
  76              		.global	taskMgr_queueTask
ARM GAS  /tmp/ccY27v0b.s 			page 3


  77              		.syntax unified
  78              		.thumb
  79              		.thumb_func
  81              	taskMgr_queueTask:
  82              	.LFB143:
  35:App/utils/src/task_mgr.c **** 
  36:App/utils/src/task_mgr.c **** void taskMgr_queueTask( void )
  37:App/utils/src/task_mgr.c **** {
  83              		.loc 1 37 1 is_stmt 1 view -0
  84              		.cfi_startproc
  85              		@ args = 0, pretend = 0, frame = 0
  86              		@ frame_needed = 0, uses_anonymous_args = 0
  87 0000 08B5     		push	{r3, lr}
  88              	.LCFI1:
  89              		.cfi_def_cfa_offset 8
  90              		.cfi_offset 3, -8
  91              		.cfi_offset 14, -4
  38:App/utils/src/task_mgr.c ****     usbMgr_queueTask();
  92              		.loc 1 38 5 view .LVU9
  93 0002 FFF7FEFF 		bl	usbMgr_queueTask
  94              	.LVL6:
  39:App/utils/src/task_mgr.c ****     utils_printLog("task queued");
  95              		.loc 1 39 5 view .LVU10
  96 0006 0248     		ldr	r0, .L7
  97 0008 FFF7FEFF 		bl	utils_printLog
  98              	.LVL7:
  40:App/utils/src/task_mgr.c **** }
  99              		.loc 1 40 1 is_stmt 0 view .LVU11
 100 000c 08BD     		pop	{r3, pc}
 101              	.L8:
 102 000e 00BF     		.align	2
 103              	.L7:
 104 0010 00000000 		.word	.LC1
 105              		.cfi_endproc
 106              	.LFE143:
 108              		.section	.rodata.taskMgr_startTask.str1.4,"aMS",%progbits,1
 109              		.align	2
 110              	.LC2:
 111 0000 53746172 		.ascii	"Starting task\000"
 111      74696E67 
 111      20746173 
 111      6B00
 112              		.section	.text.taskMgr_startTask,"ax",%progbits
 113              		.align	1
 114              		.global	taskMgr_startTask
 115              		.syntax unified
 116              		.thumb
 117              		.thumb_func
 119              	taskMgr_startTask:
 120              	.LFB144:
  41:App/utils/src/task_mgr.c **** 
  42:App/utils/src/task_mgr.c **** void taskMgr_startTask( void )
  43:App/utils/src/task_mgr.c **** {
 121              		.loc 1 43 1 is_stmt 1 view -0
 122              		.cfi_startproc
 123              		@ args = 0, pretend = 0, frame = 0
 124              		@ frame_needed = 0, uses_anonymous_args = 0
ARM GAS  /tmp/ccY27v0b.s 			page 4


 125 0000 08B5     		push	{r3, lr}
 126              	.LCFI2:
 127              		.cfi_def_cfa_offset 8
 128              		.cfi_offset 3, -8
 129              		.cfi_offset 14, -4
  44:App/utils/src/task_mgr.c ****   utils_printLog("Starting task");
 130              		.loc 1 44 3 view .LVU13
 131 0002 0448     		ldr	r0, .L11
 132 0004 FFF7FEFF 		bl	utils_printLog
 133              	.LVL8:
  45:App/utils/src/task_mgr.c ****   osKernelInitialize();
 134              		.loc 1 45 3 view .LVU14
 135 0008 FFF7FEFF 		bl	osKernelInitialize
 136              	.LVL9:
  46:App/utils/src/task_mgr.c ****   osKernelStart();
 137              		.loc 1 46 3 view .LVU15
 138 000c FFF7FEFF 		bl	osKernelStart
 139              	.LVL10:
  47:App/utils/src/task_mgr.c **** }
 140              		.loc 1 47 1 is_stmt 0 view .LVU16
 141 0010 08BD     		pop	{r3, pc}
 142              	.L12:
 143 0012 00BF     		.align	2
 144              	.L11:
 145 0014 00000000 		.word	.LC2
 146              		.cfi_endproc
 147              	.LFE144:
 149              		.text
 150              	.Letext0:
 151              		.file 2 "STM32F411/Drivers/STM32F4xx_HAL_Driver/Inc/stm32f4xx_hal_def.h"
 152              		.file 3 "STM32F411/Middlewares/thirdparty/FreeRTOS/Source/CMSIS_RTOS_V2/cmsis_os2.h"
 153              		.file 4 "App/usb/inc/usb_mgr.h"
 154              		.file 5 "STM32F411/Peripherals/inc/crc.h"
 155              		.file 6 "STM32F411/Peripherals/inc/spi.h"
 156              		.file 7 "STM32F411/Peripherals/inc/gpio.h"
 157              		.file 8 "STM32F411/Peripherals/inc/clock.h"
 158              		.file 9 "STM32F411/Drivers/STM32F4xx_HAL_Driver/Inc/stm32f4xx_hal.h"
 159              		.file 10 "App/utils/inc/utils.h"
ARM GAS  /tmp/ccY27v0b.s 			page 5

