ARM GAS  /tmp/cc9vlpLu.s 			page 1


   1              		.cpu cortex-m4
   2              		.arch armv7e-m
   3              		.fpu fpv4-sp-d16
   4              		.eabi_attribute 27, 1
   5              		.eabi_attribute 28, 1
   6              		.eabi_attribute 20, 1
   7              		.eabi_attribute 21, 1
   8              		.eabi_attribute 23, 3
   9              		.eabi_attribute 24, 1
  10              		.eabi_attribute 25, 1
  11              		.eabi_attribute 26, 1
  12              		.eabi_attribute 30, 1
  13              		.eabi_attribute 34, 1
  14              		.eabi_attribute 18, 4
  15              		.file	"usbd_core.c"
  16              		.text
  17              	.Ltext0:
  18              		.cfi_sections	.debug_frame
  19              		.file 1 "STM32F411/Middlewares/ST/STM32_USB_Device_Library/Core/Src/usbd_core.c"
  20              		.section	.rodata.USBD_Init.str1.4,"aMS",%progbits,1
  21              		.align	2
  22              	.LC0:
  23 0000 75736264 		.ascii	"usbd init\000"
  23      20696E69 
  23      7400
  24 000a 0000     		.align	2
  25              	.LC1:
  26 000c 70646576 		.ascii	"pdev null\000"
  26      206E756C 
  26      6C00
  27 0016 0000     		.align	2
  28              	.LC2:
  29 0018 75736264 		.ascii	"usbd not composite\000"
  29      206E6F74 
  29      20636F6D 
  29      706F7369 
  29      746500
  30 002b 00       		.align	2
  31              	.LC3:
  32 002c 6C6F7720 		.ascii	"low level\000"
  32      6C657665 
  32      6C00
  33              		.section	.text.USBD_Init,"ax",%progbits
  34              		.align	1
  35              		.global	USBD_Init
  36              		.syntax unified
  37              		.thumb
  38              		.thumb_func
  40              	USBD_Init:
  41              	.LVL0:
  42              	.LFB138:
   1:STM32F411/Middlewares/ST/STM32_USB_Device_Library/Core/Src/usbd_core.c **** /**
   2:STM32F411/Middlewares/ST/STM32_USB_Device_Library/Core/Src/usbd_core.c ****   ******************************************************************************
   3:STM32F411/Middlewares/ST/STM32_USB_Device_Library/Core/Src/usbd_core.c ****   * @file    usbd_core.c
   4:STM32F411/Middlewares/ST/STM32_USB_Device_Library/Core/Src/usbd_core.c ****   * @author  MCD Application Team
   5:STM32F411/Middlewares/ST/STM32_USB_Device_Library/Core/Src/usbd_core.c ****   * @brief   This file provides all the USBD core functions.
   6:STM32F411/Middlewares/ST/STM32_USB_Device_Library/Core/Src/usbd_core.c ****   ******************************************************************************
ARM GAS  /tmp/cc9vlpLu.s 			page 2


   7:STM32F411/Middlewares/ST/STM32_USB_Device_Library/Core/Src/usbd_core.c ****   * @attention
   8:STM32F411/Middlewares/ST/STM32_USB_Device_Library/Core/Src/usbd_core.c ****   *
   9:STM32F411/Middlewares/ST/STM32_USB_Device_Library/Core/Src/usbd_core.c ****   * Copyright (c) 2015 STMicroelectronics.
  10:STM32F411/Middlewares/ST/STM32_USB_Device_Library/Core/Src/usbd_core.c ****   * All rights reserved.
  11:STM32F411/Middlewares/ST/STM32_USB_Device_Library/Core/Src/usbd_core.c ****   *
  12:STM32F411/Middlewares/ST/STM32_USB_Device_Library/Core/Src/usbd_core.c ****   * This software is licensed under terms that can be found in the LICENSE file
  13:STM32F411/Middlewares/ST/STM32_USB_Device_Library/Core/Src/usbd_core.c ****   * in the root directory of this software component.
  14:STM32F411/Middlewares/ST/STM32_USB_Device_Library/Core/Src/usbd_core.c ****   * If no LICENSE file comes with this software, it is provided AS-IS.
  15:STM32F411/Middlewares/ST/STM32_USB_Device_Library/Core/Src/usbd_core.c ****   *
  16:STM32F411/Middlewares/ST/STM32_USB_Device_Library/Core/Src/usbd_core.c ****   ******************************************************************************
  17:STM32F411/Middlewares/ST/STM32_USB_Device_Library/Core/Src/usbd_core.c ****   */
  18:STM32F411/Middlewares/ST/STM32_USB_Device_Library/Core/Src/usbd_core.c **** 
  19:STM32F411/Middlewares/ST/STM32_USB_Device_Library/Core/Src/usbd_core.c **** /* Includes ------------------------------------------------------------------*/
  20:STM32F411/Middlewares/ST/STM32_USB_Device_Library/Core/Src/usbd_core.c **** #include "usbd_core.h"
  21:STM32F411/Middlewares/ST/STM32_USB_Device_Library/Core/Src/usbd_core.c **** 
  22:STM32F411/Middlewares/ST/STM32_USB_Device_Library/Core/Src/usbd_core.c **** #ifdef USE_USBD_COMPOSITE
  23:STM32F411/Middlewares/ST/STM32_USB_Device_Library/Core/Src/usbd_core.c **** #include "usbd_composite_builder.h"
  24:STM32F411/Middlewares/ST/STM32_USB_Device_Library/Core/Src/usbd_core.c **** #endif /* USE_USBD_COMPOSITE */
  25:STM32F411/Middlewares/ST/STM32_USB_Device_Library/Core/Src/usbd_core.c **** 
  26:STM32F411/Middlewares/ST/STM32_USB_Device_Library/Core/Src/usbd_core.c **** #include "utils.h"
  27:STM32F411/Middlewares/ST/STM32_USB_Device_Library/Core/Src/usbd_core.c **** 
  28:STM32F411/Middlewares/ST/STM32_USB_Device_Library/Core/Src/usbd_core.c **** /** @addtogroup STM32_USBD_DEVICE_LIBRARY
  29:STM32F411/Middlewares/ST/STM32_USB_Device_Library/Core/Src/usbd_core.c ****   * @{
  30:STM32F411/Middlewares/ST/STM32_USB_Device_Library/Core/Src/usbd_core.c ****   */
  31:STM32F411/Middlewares/ST/STM32_USB_Device_Library/Core/Src/usbd_core.c **** 
  32:STM32F411/Middlewares/ST/STM32_USB_Device_Library/Core/Src/usbd_core.c **** 
  33:STM32F411/Middlewares/ST/STM32_USB_Device_Library/Core/Src/usbd_core.c **** /** @defgroup USBD_CORE
  34:STM32F411/Middlewares/ST/STM32_USB_Device_Library/Core/Src/usbd_core.c ****   * @brief usbd core module
  35:STM32F411/Middlewares/ST/STM32_USB_Device_Library/Core/Src/usbd_core.c ****   * @{
  36:STM32F411/Middlewares/ST/STM32_USB_Device_Library/Core/Src/usbd_core.c ****   */
  37:STM32F411/Middlewares/ST/STM32_USB_Device_Library/Core/Src/usbd_core.c **** 
  38:STM32F411/Middlewares/ST/STM32_USB_Device_Library/Core/Src/usbd_core.c **** /** @defgroup USBD_CORE_Private_TypesDefinitions
  39:STM32F411/Middlewares/ST/STM32_USB_Device_Library/Core/Src/usbd_core.c ****   * @{
  40:STM32F411/Middlewares/ST/STM32_USB_Device_Library/Core/Src/usbd_core.c ****   */
  41:STM32F411/Middlewares/ST/STM32_USB_Device_Library/Core/Src/usbd_core.c **** 
  42:STM32F411/Middlewares/ST/STM32_USB_Device_Library/Core/Src/usbd_core.c **** /**
  43:STM32F411/Middlewares/ST/STM32_USB_Device_Library/Core/Src/usbd_core.c ****   * @}
  44:STM32F411/Middlewares/ST/STM32_USB_Device_Library/Core/Src/usbd_core.c ****   */
  45:STM32F411/Middlewares/ST/STM32_USB_Device_Library/Core/Src/usbd_core.c **** 
  46:STM32F411/Middlewares/ST/STM32_USB_Device_Library/Core/Src/usbd_core.c **** 
  47:STM32F411/Middlewares/ST/STM32_USB_Device_Library/Core/Src/usbd_core.c **** /** @defgroup USBD_CORE_Private_Defines
  48:STM32F411/Middlewares/ST/STM32_USB_Device_Library/Core/Src/usbd_core.c ****   * @{
  49:STM32F411/Middlewares/ST/STM32_USB_Device_Library/Core/Src/usbd_core.c ****   */
  50:STM32F411/Middlewares/ST/STM32_USB_Device_Library/Core/Src/usbd_core.c **** 
  51:STM32F411/Middlewares/ST/STM32_USB_Device_Library/Core/Src/usbd_core.c **** /**
  52:STM32F411/Middlewares/ST/STM32_USB_Device_Library/Core/Src/usbd_core.c ****   * @}
  53:STM32F411/Middlewares/ST/STM32_USB_Device_Library/Core/Src/usbd_core.c ****   */
  54:STM32F411/Middlewares/ST/STM32_USB_Device_Library/Core/Src/usbd_core.c **** 
  55:STM32F411/Middlewares/ST/STM32_USB_Device_Library/Core/Src/usbd_core.c **** 
  56:STM32F411/Middlewares/ST/STM32_USB_Device_Library/Core/Src/usbd_core.c **** /** @defgroup USBD_CORE_Private_Macros
  57:STM32F411/Middlewares/ST/STM32_USB_Device_Library/Core/Src/usbd_core.c ****   * @{
  58:STM32F411/Middlewares/ST/STM32_USB_Device_Library/Core/Src/usbd_core.c ****   */
  59:STM32F411/Middlewares/ST/STM32_USB_Device_Library/Core/Src/usbd_core.c **** 
  60:STM32F411/Middlewares/ST/STM32_USB_Device_Library/Core/Src/usbd_core.c **** /**
  61:STM32F411/Middlewares/ST/STM32_USB_Device_Library/Core/Src/usbd_core.c ****   * @}
  62:STM32F411/Middlewares/ST/STM32_USB_Device_Library/Core/Src/usbd_core.c ****   */
  63:STM32F411/Middlewares/ST/STM32_USB_Device_Library/Core/Src/usbd_core.c **** 
ARM GAS  /tmp/cc9vlpLu.s 			page 3


  64:STM32F411/Middlewares/ST/STM32_USB_Device_Library/Core/Src/usbd_core.c **** 
  65:STM32F411/Middlewares/ST/STM32_USB_Device_Library/Core/Src/usbd_core.c **** /** @defgroup USBD_CORE_Private_FunctionPrototypes
  66:STM32F411/Middlewares/ST/STM32_USB_Device_Library/Core/Src/usbd_core.c ****   * @{
  67:STM32F411/Middlewares/ST/STM32_USB_Device_Library/Core/Src/usbd_core.c ****   */
  68:STM32F411/Middlewares/ST/STM32_USB_Device_Library/Core/Src/usbd_core.c **** 
  69:STM32F411/Middlewares/ST/STM32_USB_Device_Library/Core/Src/usbd_core.c **** /**
  70:STM32F411/Middlewares/ST/STM32_USB_Device_Library/Core/Src/usbd_core.c ****   * @}
  71:STM32F411/Middlewares/ST/STM32_USB_Device_Library/Core/Src/usbd_core.c ****   */
  72:STM32F411/Middlewares/ST/STM32_USB_Device_Library/Core/Src/usbd_core.c **** 
  73:STM32F411/Middlewares/ST/STM32_USB_Device_Library/Core/Src/usbd_core.c **** /** @defgroup USBD_CORE_Private_Variables
  74:STM32F411/Middlewares/ST/STM32_USB_Device_Library/Core/Src/usbd_core.c ****   * @{
  75:STM32F411/Middlewares/ST/STM32_USB_Device_Library/Core/Src/usbd_core.c ****   */
  76:STM32F411/Middlewares/ST/STM32_USB_Device_Library/Core/Src/usbd_core.c **** 
  77:STM32F411/Middlewares/ST/STM32_USB_Device_Library/Core/Src/usbd_core.c **** /**
  78:STM32F411/Middlewares/ST/STM32_USB_Device_Library/Core/Src/usbd_core.c ****   * @}
  79:STM32F411/Middlewares/ST/STM32_USB_Device_Library/Core/Src/usbd_core.c ****   */
  80:STM32F411/Middlewares/ST/STM32_USB_Device_Library/Core/Src/usbd_core.c **** 
  81:STM32F411/Middlewares/ST/STM32_USB_Device_Library/Core/Src/usbd_core.c **** 
  82:STM32F411/Middlewares/ST/STM32_USB_Device_Library/Core/Src/usbd_core.c **** /** @defgroup USBD_CORE_Private_Functions
  83:STM32F411/Middlewares/ST/STM32_USB_Device_Library/Core/Src/usbd_core.c ****   * @{
  84:STM32F411/Middlewares/ST/STM32_USB_Device_Library/Core/Src/usbd_core.c ****   */
  85:STM32F411/Middlewares/ST/STM32_USB_Device_Library/Core/Src/usbd_core.c **** 
  86:STM32F411/Middlewares/ST/STM32_USB_Device_Library/Core/Src/usbd_core.c **** /**
  87:STM32F411/Middlewares/ST/STM32_USB_Device_Library/Core/Src/usbd_core.c ****   * @brief  USBD_Init
  88:STM32F411/Middlewares/ST/STM32_USB_Device_Library/Core/Src/usbd_core.c ****   *         Initializes the device stack and load the class driver
  89:STM32F411/Middlewares/ST/STM32_USB_Device_Library/Core/Src/usbd_core.c ****   * @param  pdev: device instance
  90:STM32F411/Middlewares/ST/STM32_USB_Device_Library/Core/Src/usbd_core.c ****   * @param  pdesc: Descriptor structure address
  91:STM32F411/Middlewares/ST/STM32_USB_Device_Library/Core/Src/usbd_core.c ****   * @param  id: Low level core index
  92:STM32F411/Middlewares/ST/STM32_USB_Device_Library/Core/Src/usbd_core.c ****   * @retval None
  93:STM32F411/Middlewares/ST/STM32_USB_Device_Library/Core/Src/usbd_core.c ****   */
  94:STM32F411/Middlewares/ST/STM32_USB_Device_Library/Core/Src/usbd_core.c **** USBD_StatusTypeDef USBD_Init(USBD_HandleTypeDef *pdev,
  95:STM32F411/Middlewares/ST/STM32_USB_Device_Library/Core/Src/usbd_core.c ****                              USBD_DescriptorsTypeDef *pdesc, uint8_t id)
  96:STM32F411/Middlewares/ST/STM32_USB_Device_Library/Core/Src/usbd_core.c **** {
  43              		.loc 1 96 1 view -0
  44              		.cfi_startproc
  45              		@ args = 0, pretend = 0, frame = 0
  46              		@ frame_needed = 0, uses_anonymous_args = 0
  47              		.loc 1 96 1 is_stmt 0 view .LVU1
  48 0000 70B5     		push	{r4, r5, r6, lr}
  49              	.LCFI0:
  50              		.cfi_def_cfa_offset 16
  51              		.cfi_offset 4, -16
  52              		.cfi_offset 5, -12
  53              		.cfi_offset 6, -8
  54              		.cfi_offset 14, -4
  55 0002 0446     		mov	r4, r0
  56 0004 0D46     		mov	r5, r1
  57 0006 1646     		mov	r6, r2
  97:STM32F411/Middlewares/ST/STM32_USB_Device_Library/Core/Src/usbd_core.c ****   USBD_StatusTypeDef ret;
  58              		.loc 1 97 3 is_stmt 1 view .LVU2
  98:STM32F411/Middlewares/ST/STM32_USB_Device_Library/Core/Src/usbd_core.c **** 
  99:STM32F411/Middlewares/ST/STM32_USB_Device_Library/Core/Src/usbd_core.c ****   utils_printLog("usbd init");
  59              		.loc 1 99 3 view .LVU3
  60 0008 1048     		ldr	r0, .L7
  61              	.LVL1:
  62              		.loc 1 99 3 is_stmt 0 view .LVU4
  63 000a FFF7FEFF 		bl	utils_printLog
ARM GAS  /tmp/cc9vlpLu.s 			page 4


  64              	.LVL2:
 100:STM32F411/Middlewares/ST/STM32_USB_Device_Library/Core/Src/usbd_core.c **** 
 101:STM32F411/Middlewares/ST/STM32_USB_Device_Library/Core/Src/usbd_core.c ****   /* Check whether the USB Host handle is valid */
 102:STM32F411/Middlewares/ST/STM32_USB_Device_Library/Core/Src/usbd_core.c ****   if (pdev == NULL)
  65              		.loc 1 102 3 is_stmt 1 view .LVU5
  66              		.loc 1 102 6 is_stmt 0 view .LVU6
  67 000e BCB1     		cbz	r4, .L6
 103:STM32F411/Middlewares/ST/STM32_USB_Device_Library/Core/Src/usbd_core.c ****   {
 104:STM32F411/Middlewares/ST/STM32_USB_Device_Library/Core/Src/usbd_core.c ****     utils_printLog("pdev null");
 105:STM32F411/Middlewares/ST/STM32_USB_Device_Library/Core/Src/usbd_core.c **** #if (USBD_DEBUG_LEVEL > 1U)
 106:STM32F411/Middlewares/ST/STM32_USB_Device_Library/Core/Src/usbd_core.c ****     USBD_ErrLog("Invalid Device handle");
 107:STM32F411/Middlewares/ST/STM32_USB_Device_Library/Core/Src/usbd_core.c **** #endif /* (USBD_DEBUG_LEVEL > 1U) */
 108:STM32F411/Middlewares/ST/STM32_USB_Device_Library/Core/Src/usbd_core.c ****     return USBD_FAIL;
 109:STM32F411/Middlewares/ST/STM32_USB_Device_Library/Core/Src/usbd_core.c ****   }
 110:STM32F411/Middlewares/ST/STM32_USB_Device_Library/Core/Src/usbd_core.c **** 
 111:STM32F411/Middlewares/ST/STM32_USB_Device_Library/Core/Src/usbd_core.c **** #ifdef USE_USBD_COMPOSITE
 112:STM32F411/Middlewares/ST/STM32_USB_Device_Library/Core/Src/usbd_core.c **** utils_printLog("usbd composite");
 113:STM32F411/Middlewares/ST/STM32_USB_Device_Library/Core/Src/usbd_core.c ****   /* Parse the table of classes in use */
 114:STM32F411/Middlewares/ST/STM32_USB_Device_Library/Core/Src/usbd_core.c ****   for (uint32_t i = 0; i < USBD_MAX_SUPPORTED_CLASS; i++)
 115:STM32F411/Middlewares/ST/STM32_USB_Device_Library/Core/Src/usbd_core.c ****   {
 116:STM32F411/Middlewares/ST/STM32_USB_Device_Library/Core/Src/usbd_core.c ****     /* Unlink previous class*/
 117:STM32F411/Middlewares/ST/STM32_USB_Device_Library/Core/Src/usbd_core.c ****     pdev->pClass[i] = NULL;
 118:STM32F411/Middlewares/ST/STM32_USB_Device_Library/Core/Src/usbd_core.c ****     pdev->pUserData[i] = NULL;
 119:STM32F411/Middlewares/ST/STM32_USB_Device_Library/Core/Src/usbd_core.c **** 
 120:STM32F411/Middlewares/ST/STM32_USB_Device_Library/Core/Src/usbd_core.c ****     /* Set class as inactive */
 121:STM32F411/Middlewares/ST/STM32_USB_Device_Library/Core/Src/usbd_core.c ****     pdev->tclasslist[i].Active = 0;
 122:STM32F411/Middlewares/ST/STM32_USB_Device_Library/Core/Src/usbd_core.c ****     pdev->NumClasses = 0;
 123:STM32F411/Middlewares/ST/STM32_USB_Device_Library/Core/Src/usbd_core.c ****     pdev->classId = 0;
 124:STM32F411/Middlewares/ST/STM32_USB_Device_Library/Core/Src/usbd_core.c ****   }
 125:STM32F411/Middlewares/ST/STM32_USB_Device_Library/Core/Src/usbd_core.c **** #else
 126:STM32F411/Middlewares/ST/STM32_USB_Device_Library/Core/Src/usbd_core.c **** utils_printLog("usbd not composite");
  68              		.loc 1 126 1 is_stmt 1 view .LVU7
  69 0010 0F48     		ldr	r0, .L7+4
  70 0012 FFF7FEFF 		bl	utils_printLog
  71              	.LVL3:
 127:STM32F411/Middlewares/ST/STM32_USB_Device_Library/Core/Src/usbd_core.c ****   /* Unlink previous class*/
 128:STM32F411/Middlewares/ST/STM32_USB_Device_Library/Core/Src/usbd_core.c ****   pdev->pClass[0] = NULL;
  72              		.loc 1 128 3 view .LVU8
  73              		.loc 1 128 19 is_stmt 0 view .LVU9
  74 0016 0023     		movs	r3, #0
  75 0018 C4F8B832 		str	r3, [r4, #696]
 129:STM32F411/Middlewares/ST/STM32_USB_Device_Library/Core/Src/usbd_core.c ****   pdev->pUserData[0] = NULL;
  76              		.loc 1 129 3 is_stmt 1 view .LVU10
  77              		.loc 1 129 22 is_stmt 0 view .LVU11
  78 001c C4F8C432 		str	r3, [r4, #708]
 130:STM32F411/Middlewares/ST/STM32_USB_Device_Library/Core/Src/usbd_core.c **** #endif /* USE_USBD_COMPOSITE */
 131:STM32F411/Middlewares/ST/STM32_USB_Device_Library/Core/Src/usbd_core.c **** 
 132:STM32F411/Middlewares/ST/STM32_USB_Device_Library/Core/Src/usbd_core.c ****   pdev->pConfDesc = NULL;
  79              		.loc 1 132 3 is_stmt 1 view .LVU12
  80              		.loc 1 132 19 is_stmt 0 view .LVU13
  81 0020 C4F8D032 		str	r3, [r4, #720]
 133:STM32F411/Middlewares/ST/STM32_USB_Device_Library/Core/Src/usbd_core.c **** 
 134:STM32F411/Middlewares/ST/STM32_USB_Device_Library/Core/Src/usbd_core.c ****   /* Assign USBD Descriptors */
 135:STM32F411/Middlewares/ST/STM32_USB_Device_Library/Core/Src/usbd_core.c ****   if (pdesc != NULL)
  82              		.loc 1 135 3 is_stmt 1 view .LVU14
  83              		.loc 1 135 6 is_stmt 0 view .LVU15
  84 0024 0DB1     		cbz	r5, .L4
ARM GAS  /tmp/cc9vlpLu.s 			page 5


 136:STM32F411/Middlewares/ST/STM32_USB_Device_Library/Core/Src/usbd_core.c ****   {
 137:STM32F411/Middlewares/ST/STM32_USB_Device_Library/Core/Src/usbd_core.c ****     pdev->pDesc = pdesc;
  85              		.loc 1 137 5 is_stmt 1 view .LVU16
  86              		.loc 1 137 17 is_stmt 0 view .LVU17
  87 0026 C4F8B452 		str	r5, [r4, #692]
  88              	.L4:
 138:STM32F411/Middlewares/ST/STM32_USB_Device_Library/Core/Src/usbd_core.c ****   }
 139:STM32F411/Middlewares/ST/STM32_USB_Device_Library/Core/Src/usbd_core.c **** 
 140:STM32F411/Middlewares/ST/STM32_USB_Device_Library/Core/Src/usbd_core.c ****   /* Set Device initial State */
 141:STM32F411/Middlewares/ST/STM32_USB_Device_Library/Core/Src/usbd_core.c ****   pdev->dev_state = USBD_STATE_DEFAULT;
  89              		.loc 1 141 3 is_stmt 1 view .LVU18
  90              		.loc 1 141 19 is_stmt 0 view .LVU19
  91 002a 0123     		movs	r3, #1
  92 002c 84F89C32 		strb	r3, [r4, #668]
 142:STM32F411/Middlewares/ST/STM32_USB_Device_Library/Core/Src/usbd_core.c ****   pdev->id = id;
  93              		.loc 1 142 3 is_stmt 1 view .LVU20
  94              		.loc 1 142 12 is_stmt 0 view .LVU21
  95 0030 2670     		strb	r6, [r4]
 143:STM32F411/Middlewares/ST/STM32_USB_Device_Library/Core/Src/usbd_core.c **** 
 144:STM32F411/Middlewares/ST/STM32_USB_Device_Library/Core/Src/usbd_core.c ****   /* Initialize low level driver */
 145:STM32F411/Middlewares/ST/STM32_USB_Device_Library/Core/Src/usbd_core.c ****   utils_printLog("low level");
  96              		.loc 1 145 3 is_stmt 1 view .LVU22
  97 0032 0848     		ldr	r0, .L7+8
  98 0034 FFF7FEFF 		bl	utils_printLog
  99              	.LVL4:
 146:STM32F411/Middlewares/ST/STM32_USB_Device_Library/Core/Src/usbd_core.c ****   ret = USBD_LL_Init(pdev);
 100              		.loc 1 146 3 view .LVU23
 101              		.loc 1 146 9 is_stmt 0 view .LVU24
 102 0038 2046     		mov	r0, r4
 103 003a FFF7FEFF 		bl	USBD_LL_Init
 104              	.LVL5:
 147:STM32F411/Middlewares/ST/STM32_USB_Device_Library/Core/Src/usbd_core.c **** 
 148:STM32F411/Middlewares/ST/STM32_USB_Device_Library/Core/Src/usbd_core.c ****   return ret;
 105              		.loc 1 148 3 is_stmt 1 view .LVU25
 106              	.L3:
 149:STM32F411/Middlewares/ST/STM32_USB_Device_Library/Core/Src/usbd_core.c **** }
 107              		.loc 1 149 1 is_stmt 0 view .LVU26
 108 003e 70BD     		pop	{r4, r5, r6, pc}
 109              	.LVL6:
 110              	.L6:
 104:STM32F411/Middlewares/ST/STM32_USB_Device_Library/Core/Src/usbd_core.c **** #if (USBD_DEBUG_LEVEL > 1U)
 111              		.loc 1 104 5 is_stmt 1 view .LVU27
 112 0040 0548     		ldr	r0, .L7+12
 113 0042 FFF7FEFF 		bl	utils_printLog
 114              	.LVL7:
 108:STM32F411/Middlewares/ST/STM32_USB_Device_Library/Core/Src/usbd_core.c ****   }
 115              		.loc 1 108 5 view .LVU28
 108:STM32F411/Middlewares/ST/STM32_USB_Device_Library/Core/Src/usbd_core.c ****   }
 116              		.loc 1 108 12 is_stmt 0 view .LVU29
 117 0046 0320     		movs	r0, #3
 118 0048 F9E7     		b	.L3
 119              	.L8:
 120 004a 00BF     		.align	2
 121              	.L7:
 122 004c 00000000 		.word	.LC0
 123 0050 18000000 		.word	.LC2
 124 0054 2C000000 		.word	.LC3
ARM GAS  /tmp/cc9vlpLu.s 			page 6


 125 0058 0C000000 		.word	.LC1
 126              		.cfi_endproc
 127              	.LFE138:
 129              		.section	.text.USBD_DeInit,"ax",%progbits
 130              		.align	1
 131              		.global	USBD_DeInit
 132              		.syntax unified
 133              		.thumb
 134              		.thumb_func
 136              	USBD_DeInit:
 137              	.LVL8:
 138              	.LFB139:
 150:STM32F411/Middlewares/ST/STM32_USB_Device_Library/Core/Src/usbd_core.c **** 
 151:STM32F411/Middlewares/ST/STM32_USB_Device_Library/Core/Src/usbd_core.c **** /**
 152:STM32F411/Middlewares/ST/STM32_USB_Device_Library/Core/Src/usbd_core.c ****   * @brief  USBD_DeInit
 153:STM32F411/Middlewares/ST/STM32_USB_Device_Library/Core/Src/usbd_core.c ****   *         Re-Initialize the device library
 154:STM32F411/Middlewares/ST/STM32_USB_Device_Library/Core/Src/usbd_core.c ****   * @param  pdev: device instance
 155:STM32F411/Middlewares/ST/STM32_USB_Device_Library/Core/Src/usbd_core.c ****   * @retval status: status
 156:STM32F411/Middlewares/ST/STM32_USB_Device_Library/Core/Src/usbd_core.c ****   */
 157:STM32F411/Middlewares/ST/STM32_USB_Device_Library/Core/Src/usbd_core.c **** USBD_StatusTypeDef USBD_DeInit(USBD_HandleTypeDef *pdev)
 158:STM32F411/Middlewares/ST/STM32_USB_Device_Library/Core/Src/usbd_core.c **** {
 139              		.loc 1 158 1 is_stmt 1 view -0
 140              		.cfi_startproc
 141              		@ args = 0, pretend = 0, frame = 0
 142              		@ frame_needed = 0, uses_anonymous_args = 0
 143              		.loc 1 158 1 is_stmt 0 view .LVU31
 144 0000 10B5     		push	{r4, lr}
 145              	.LCFI1:
 146              		.cfi_def_cfa_offset 8
 147              		.cfi_offset 4, -8
 148              		.cfi_offset 14, -4
 149 0002 0446     		mov	r4, r0
 159:STM32F411/Middlewares/ST/STM32_USB_Device_Library/Core/Src/usbd_core.c ****   USBD_StatusTypeDef ret;
 150              		.loc 1 159 3 is_stmt 1 view .LVU32
 160:STM32F411/Middlewares/ST/STM32_USB_Device_Library/Core/Src/usbd_core.c **** 
 161:STM32F411/Middlewares/ST/STM32_USB_Device_Library/Core/Src/usbd_core.c ****   /* Disconnect the USB Device */
 162:STM32F411/Middlewares/ST/STM32_USB_Device_Library/Core/Src/usbd_core.c ****   (void)USBD_LL_Stop(pdev);
 151              		.loc 1 162 3 view .LVU33
 152              		.loc 1 162 9 is_stmt 0 view .LVU34
 153 0004 FFF7FEFF 		bl	USBD_LL_Stop
 154              	.LVL9:
 163:STM32F411/Middlewares/ST/STM32_USB_Device_Library/Core/Src/usbd_core.c **** 
 164:STM32F411/Middlewares/ST/STM32_USB_Device_Library/Core/Src/usbd_core.c ****   /* Set Default State */
 165:STM32F411/Middlewares/ST/STM32_USB_Device_Library/Core/Src/usbd_core.c ****   pdev->dev_state = USBD_STATE_DEFAULT;
 155              		.loc 1 165 3 is_stmt 1 view .LVU35
 156              		.loc 1 165 19 is_stmt 0 view .LVU36
 157 0008 0123     		movs	r3, #1
 158 000a 84F89C32 		strb	r3, [r4, #668]
 166:STM32F411/Middlewares/ST/STM32_USB_Device_Library/Core/Src/usbd_core.c **** 
 167:STM32F411/Middlewares/ST/STM32_USB_Device_Library/Core/Src/usbd_core.c **** #ifdef USE_USBD_COMPOSITE
 168:STM32F411/Middlewares/ST/STM32_USB_Device_Library/Core/Src/usbd_core.c ****   /* Parse the table of classes in use */
 169:STM32F411/Middlewares/ST/STM32_USB_Device_Library/Core/Src/usbd_core.c ****   for (uint32_t i = 0; i < USBD_MAX_SUPPORTED_CLASS; i++)
 170:STM32F411/Middlewares/ST/STM32_USB_Device_Library/Core/Src/usbd_core.c ****   {
 171:STM32F411/Middlewares/ST/STM32_USB_Device_Library/Core/Src/usbd_core.c ****     /* Check if current class is in use */
 172:STM32F411/Middlewares/ST/STM32_USB_Device_Library/Core/Src/usbd_core.c ****     if ((pdev->tclasslist[i].Active) == 1U)
 173:STM32F411/Middlewares/ST/STM32_USB_Device_Library/Core/Src/usbd_core.c ****     {
 174:STM32F411/Middlewares/ST/STM32_USB_Device_Library/Core/Src/usbd_core.c ****       if (pdev->pClass[i] != NULL)
ARM GAS  /tmp/cc9vlpLu.s 			page 7


 175:STM32F411/Middlewares/ST/STM32_USB_Device_Library/Core/Src/usbd_core.c ****       {
 176:STM32F411/Middlewares/ST/STM32_USB_Device_Library/Core/Src/usbd_core.c ****         pdev->classId = i;
 177:STM32F411/Middlewares/ST/STM32_USB_Device_Library/Core/Src/usbd_core.c ****         /* Free Class Resources */
 178:STM32F411/Middlewares/ST/STM32_USB_Device_Library/Core/Src/usbd_core.c ****         pdev->pClass[i]->DeInit(pdev, (uint8_t)pdev->dev_config);
 179:STM32F411/Middlewares/ST/STM32_USB_Device_Library/Core/Src/usbd_core.c ****       }
 180:STM32F411/Middlewares/ST/STM32_USB_Device_Library/Core/Src/usbd_core.c ****     }
 181:STM32F411/Middlewares/ST/STM32_USB_Device_Library/Core/Src/usbd_core.c ****   }
 182:STM32F411/Middlewares/ST/STM32_USB_Device_Library/Core/Src/usbd_core.c **** #else
 183:STM32F411/Middlewares/ST/STM32_USB_Device_Library/Core/Src/usbd_core.c ****   /* Free Class Resources */
 184:STM32F411/Middlewares/ST/STM32_USB_Device_Library/Core/Src/usbd_core.c ****   if (pdev->pClass[0] != NULL)
 159              		.loc 1 184 3 is_stmt 1 view .LVU37
 160              		.loc 1 184 19 is_stmt 0 view .LVU38
 161 000e D4F8B832 		ldr	r3, [r4, #696]
 162              		.loc 1 184 6 view .LVU39
 163 0012 1BB1     		cbz	r3, .L10
 185:STM32F411/Middlewares/ST/STM32_USB_Device_Library/Core/Src/usbd_core.c ****   {
 186:STM32F411/Middlewares/ST/STM32_USB_Device_Library/Core/Src/usbd_core.c ****     pdev->pClass[0]->DeInit(pdev, (uint8_t)pdev->dev_config);
 164              		.loc 1 186 5 is_stmt 1 view .LVU40
 165              		.loc 1 186 20 is_stmt 0 view .LVU41
 166 0014 5B68     		ldr	r3, [r3, #4]
 167              		.loc 1 186 5 view .LVU42
 168 0016 2179     		ldrb	r1, [r4, #4]	@ zero_extendqisi2
 169 0018 2046     		mov	r0, r4
 170 001a 9847     		blx	r3
 171              	.LVL10:
 172              	.L10:
 187:STM32F411/Middlewares/ST/STM32_USB_Device_Library/Core/Src/usbd_core.c ****   }
 188:STM32F411/Middlewares/ST/STM32_USB_Device_Library/Core/Src/usbd_core.c **** 
 189:STM32F411/Middlewares/ST/STM32_USB_Device_Library/Core/Src/usbd_core.c ****   pdev->pUserData[0] = NULL;
 173              		.loc 1 189 3 is_stmt 1 view .LVU43
 174              		.loc 1 189 22 is_stmt 0 view .LVU44
 175 001c 0023     		movs	r3, #0
 176 001e C4F8C432 		str	r3, [r4, #708]
 190:STM32F411/Middlewares/ST/STM32_USB_Device_Library/Core/Src/usbd_core.c **** 
 191:STM32F411/Middlewares/ST/STM32_USB_Device_Library/Core/Src/usbd_core.c **** #endif /* USE_USBD_COMPOSITE */
 192:STM32F411/Middlewares/ST/STM32_USB_Device_Library/Core/Src/usbd_core.c **** 
 193:STM32F411/Middlewares/ST/STM32_USB_Device_Library/Core/Src/usbd_core.c ****   /* Free Device descriptors resources */
 194:STM32F411/Middlewares/ST/STM32_USB_Device_Library/Core/Src/usbd_core.c ****   pdev->pDesc = NULL;
 177              		.loc 1 194 3 is_stmt 1 view .LVU45
 178              		.loc 1 194 15 is_stmt 0 view .LVU46
 179 0022 C4F8B432 		str	r3, [r4, #692]
 195:STM32F411/Middlewares/ST/STM32_USB_Device_Library/Core/Src/usbd_core.c ****   pdev->pConfDesc = NULL;
 180              		.loc 1 195 3 is_stmt 1 view .LVU47
 181              		.loc 1 195 19 is_stmt 0 view .LVU48
 182 0026 C4F8D032 		str	r3, [r4, #720]
 196:STM32F411/Middlewares/ST/STM32_USB_Device_Library/Core/Src/usbd_core.c **** 
 197:STM32F411/Middlewares/ST/STM32_USB_Device_Library/Core/Src/usbd_core.c ****   /* DeInitialize low level driver */
 198:STM32F411/Middlewares/ST/STM32_USB_Device_Library/Core/Src/usbd_core.c ****   ret = USBD_LL_DeInit(pdev);
 183              		.loc 1 198 3 is_stmt 1 view .LVU49
 184              		.loc 1 198 9 is_stmt 0 view .LVU50
 185 002a 2046     		mov	r0, r4
 186 002c FFF7FEFF 		bl	USBD_LL_DeInit
 187              	.LVL11:
 199:STM32F411/Middlewares/ST/STM32_USB_Device_Library/Core/Src/usbd_core.c **** 
 200:STM32F411/Middlewares/ST/STM32_USB_Device_Library/Core/Src/usbd_core.c ****   return ret;
 188              		.loc 1 200 3 is_stmt 1 view .LVU51
 201:STM32F411/Middlewares/ST/STM32_USB_Device_Library/Core/Src/usbd_core.c **** }
ARM GAS  /tmp/cc9vlpLu.s 			page 8


 189              		.loc 1 201 1 is_stmt 0 view .LVU52
 190 0030 10BD     		pop	{r4, pc}
 191              		.loc 1 201 1 view .LVU53
 192              		.cfi_endproc
 193              	.LFE139:
 195              		.section	.text.USBD_RegisterClass,"ax",%progbits
 196              		.align	1
 197              		.global	USBD_RegisterClass
 198              		.syntax unified
 199              		.thumb
 200              		.thumb_func
 202              	USBD_RegisterClass:
 203              	.LVL12:
 204              	.LFB140:
 202:STM32F411/Middlewares/ST/STM32_USB_Device_Library/Core/Src/usbd_core.c **** 
 203:STM32F411/Middlewares/ST/STM32_USB_Device_Library/Core/Src/usbd_core.c **** /**
 204:STM32F411/Middlewares/ST/STM32_USB_Device_Library/Core/Src/usbd_core.c ****   * @brief  USBD_RegisterClass
 205:STM32F411/Middlewares/ST/STM32_USB_Device_Library/Core/Src/usbd_core.c ****   *         Link class driver to Device Core.
 206:STM32F411/Middlewares/ST/STM32_USB_Device_Library/Core/Src/usbd_core.c ****   * @param  pDevice : Device Handle
 207:STM32F411/Middlewares/ST/STM32_USB_Device_Library/Core/Src/usbd_core.c ****   * @param  pclass: Class handle
 208:STM32F411/Middlewares/ST/STM32_USB_Device_Library/Core/Src/usbd_core.c ****   * @retval USBD Status
 209:STM32F411/Middlewares/ST/STM32_USB_Device_Library/Core/Src/usbd_core.c ****   */
 210:STM32F411/Middlewares/ST/STM32_USB_Device_Library/Core/Src/usbd_core.c **** USBD_StatusTypeDef USBD_RegisterClass(USBD_HandleTypeDef *pdev, USBD_ClassTypeDef *pclass)
 211:STM32F411/Middlewares/ST/STM32_USB_Device_Library/Core/Src/usbd_core.c **** {
 205              		.loc 1 211 1 is_stmt 1 view -0
 206              		.cfi_startproc
 207              		@ args = 0, pretend = 0, frame = 8
 208              		@ frame_needed = 0, uses_anonymous_args = 0
 209              		.loc 1 211 1 is_stmt 0 view .LVU55
 210 0000 10B5     		push	{r4, lr}
 211              	.LCFI2:
 212              		.cfi_def_cfa_offset 8
 213              		.cfi_offset 4, -8
 214              		.cfi_offset 14, -4
 215 0002 82B0     		sub	sp, sp, #8
 216              	.LCFI3:
 217              		.cfi_def_cfa_offset 16
 212:STM32F411/Middlewares/ST/STM32_USB_Device_Library/Core/Src/usbd_core.c ****   uint16_t len = 0U;
 218              		.loc 1 212 3 is_stmt 1 view .LVU56
 219              		.loc 1 212 12 is_stmt 0 view .LVU57
 220 0004 0023     		movs	r3, #0
 221 0006 ADF80630 		strh	r3, [sp, #6]	@ movhi
 213:STM32F411/Middlewares/ST/STM32_USB_Device_Library/Core/Src/usbd_core.c **** 
 214:STM32F411/Middlewares/ST/STM32_USB_Device_Library/Core/Src/usbd_core.c ****   if (pclass == NULL)
 222              		.loc 1 214 3 is_stmt 1 view .LVU58
 223              		.loc 1 214 6 is_stmt 0 view .LVU59
 224 000a 89B1     		cbz	r1, .L15
 225 000c 0446     		mov	r4, r0
 215:STM32F411/Middlewares/ST/STM32_USB_Device_Library/Core/Src/usbd_core.c ****   {
 216:STM32F411/Middlewares/ST/STM32_USB_Device_Library/Core/Src/usbd_core.c **** #if (USBD_DEBUG_LEVEL > 1U)
 217:STM32F411/Middlewares/ST/STM32_USB_Device_Library/Core/Src/usbd_core.c ****     USBD_ErrLog("Invalid Class handle");
 218:STM32F411/Middlewares/ST/STM32_USB_Device_Library/Core/Src/usbd_core.c **** #endif /* (USBD_DEBUG_LEVEL > 1U) */
 219:STM32F411/Middlewares/ST/STM32_USB_Device_Library/Core/Src/usbd_core.c ****     return USBD_FAIL;
 220:STM32F411/Middlewares/ST/STM32_USB_Device_Library/Core/Src/usbd_core.c ****   }
 221:STM32F411/Middlewares/ST/STM32_USB_Device_Library/Core/Src/usbd_core.c **** 
 222:STM32F411/Middlewares/ST/STM32_USB_Device_Library/Core/Src/usbd_core.c ****   /* link the class to the USB Device handle */
 223:STM32F411/Middlewares/ST/STM32_USB_Device_Library/Core/Src/usbd_core.c ****   pdev->pClass[0] = pclass;
ARM GAS  /tmp/cc9vlpLu.s 			page 9


 226              		.loc 1 223 3 is_stmt 1 view .LVU60
 227              		.loc 1 223 19 is_stmt 0 view .LVU61
 228 000e C0F8B812 		str	r1, [r0, #696]
 224:STM32F411/Middlewares/ST/STM32_USB_Device_Library/Core/Src/usbd_core.c **** 
 225:STM32F411/Middlewares/ST/STM32_USB_Device_Library/Core/Src/usbd_core.c ****   /* Get Device Configuration Descriptor */
 226:STM32F411/Middlewares/ST/STM32_USB_Device_Library/Core/Src/usbd_core.c **** #ifdef USE_USB_HS
 227:STM32F411/Middlewares/ST/STM32_USB_Device_Library/Core/Src/usbd_core.c ****   if (pdev->pClass[pdev->classId]->GetHSConfigDescriptor != NULL)
 228:STM32F411/Middlewares/ST/STM32_USB_Device_Library/Core/Src/usbd_core.c ****   {
 229:STM32F411/Middlewares/ST/STM32_USB_Device_Library/Core/Src/usbd_core.c ****     pdev->pConfDesc = (void *)pdev->pClass[pdev->classId]->GetHSConfigDescriptor(&len);
 230:STM32F411/Middlewares/ST/STM32_USB_Device_Library/Core/Src/usbd_core.c ****   }
 231:STM32F411/Middlewares/ST/STM32_USB_Device_Library/Core/Src/usbd_core.c **** #else /* Default USE_USB_FS */
 232:STM32F411/Middlewares/ST/STM32_USB_Device_Library/Core/Src/usbd_core.c ****   if (pdev->pClass[pdev->classId]->GetFSConfigDescriptor != NULL)
 229              		.loc 1 232 3 is_stmt 1 view .LVU62
 230              		.loc 1 232 34 is_stmt 0 view .LVU63
 231 0012 CB6A     		ldr	r3, [r1, #44]
 232              		.loc 1 232 6 view .LVU64
 233 0014 23B1     		cbz	r3, .L14
 233:STM32F411/Middlewares/ST/STM32_USB_Device_Library/Core/Src/usbd_core.c ****   {
 234:STM32F411/Middlewares/ST/STM32_USB_Device_Library/Core/Src/usbd_core.c ****     pdev->pConfDesc = (void *)pdev->pClass[pdev->classId]->GetFSConfigDescriptor(&len);
 234              		.loc 1 234 5 is_stmt 1 view .LVU65
 235              		.loc 1 234 31 is_stmt 0 view .LVU66
 236 0016 0DF10600 		add	r0, sp, #6
 237              	.LVL13:
 238              		.loc 1 234 31 view .LVU67
 239 001a 9847     		blx	r3
 240              	.LVL14:
 241              		.loc 1 234 21 discriminator 1 view .LVU68
 242 001c C4F8D002 		str	r0, [r4, #720]
 243              	.L14:
 235:STM32F411/Middlewares/ST/STM32_USB_Device_Library/Core/Src/usbd_core.c ****   }
 236:STM32F411/Middlewares/ST/STM32_USB_Device_Library/Core/Src/usbd_core.c **** #endif /* USE_USB_FS */
 237:STM32F411/Middlewares/ST/STM32_USB_Device_Library/Core/Src/usbd_core.c **** 
 238:STM32F411/Middlewares/ST/STM32_USB_Device_Library/Core/Src/usbd_core.c ****   /* Increment the NumClasses */
 239:STM32F411/Middlewares/ST/STM32_USB_Device_Library/Core/Src/usbd_core.c ****   pdev->NumClasses ++;
 244              		.loc 1 239 3 is_stmt 1 view .LVU69
 245              		.loc 1 239 7 is_stmt 0 view .LVU70
 246 0020 D4F8D832 		ldr	r3, [r4, #728]
 247              		.loc 1 239 20 view .LVU71
 248 0024 0133     		adds	r3, r3, #1
 249 0026 C4F8D832 		str	r3, [r4, #728]
 240:STM32F411/Middlewares/ST/STM32_USB_Device_Library/Core/Src/usbd_core.c **** 
 241:STM32F411/Middlewares/ST/STM32_USB_Device_Library/Core/Src/usbd_core.c ****   return USBD_OK;
 250              		.loc 1 241 3 is_stmt 1 view .LVU72
 251              		.loc 1 241 10 is_stmt 0 view .LVU73
 252 002a 0020     		movs	r0, #0
 253              	.LVL15:
 254              	.L13:
 242:STM32F411/Middlewares/ST/STM32_USB_Device_Library/Core/Src/usbd_core.c **** }
 255              		.loc 1 242 1 view .LVU74
 256 002c 02B0     		add	sp, sp, #8
 257              	.LCFI4:
 258              		.cfi_remember_state
 259              		.cfi_def_cfa_offset 8
 260              		@ sp needed
 261 002e 10BD     		pop	{r4, pc}
 262              	.LVL16:
 263              	.L15:
ARM GAS  /tmp/cc9vlpLu.s 			page 10


 264              	.LCFI5:
 265              		.cfi_restore_state
 219:STM32F411/Middlewares/ST/STM32_USB_Device_Library/Core/Src/usbd_core.c ****   }
 266              		.loc 1 219 12 view .LVU75
 267 0030 0320     		movs	r0, #3
 268              	.LVL17:
 219:STM32F411/Middlewares/ST/STM32_USB_Device_Library/Core/Src/usbd_core.c ****   }
 269              		.loc 1 219 12 view .LVU76
 270 0032 FBE7     		b	.L13
 271              		.cfi_endproc
 272              	.LFE140:
 274              		.section	.text.USBD_Start,"ax",%progbits
 275              		.align	1
 276              		.global	USBD_Start
 277              		.syntax unified
 278              		.thumb
 279              		.thumb_func
 281              	USBD_Start:
 282              	.LVL18:
 283              	.LFB141:
 243:STM32F411/Middlewares/ST/STM32_USB_Device_Library/Core/Src/usbd_core.c **** 
 244:STM32F411/Middlewares/ST/STM32_USB_Device_Library/Core/Src/usbd_core.c **** #ifdef USE_USBD_COMPOSITE
 245:STM32F411/Middlewares/ST/STM32_USB_Device_Library/Core/Src/usbd_core.c **** /**
 246:STM32F411/Middlewares/ST/STM32_USB_Device_Library/Core/Src/usbd_core.c ****   * @brief  USBD_RegisterClassComposite
 247:STM32F411/Middlewares/ST/STM32_USB_Device_Library/Core/Src/usbd_core.c ****   *         Link class driver to Device Core.
 248:STM32F411/Middlewares/ST/STM32_USB_Device_Library/Core/Src/usbd_core.c ****   * @param  pdev : Device Handle
 249:STM32F411/Middlewares/ST/STM32_USB_Device_Library/Core/Src/usbd_core.c ****   * @param  pclass: Class handle
 250:STM32F411/Middlewares/ST/STM32_USB_Device_Library/Core/Src/usbd_core.c ****   * @param  classtype: Class type
 251:STM32F411/Middlewares/ST/STM32_USB_Device_Library/Core/Src/usbd_core.c ****   * @param  EpAddr: Endpoint Address handle
 252:STM32F411/Middlewares/ST/STM32_USB_Device_Library/Core/Src/usbd_core.c ****   * @retval USBD Status
 253:STM32F411/Middlewares/ST/STM32_USB_Device_Library/Core/Src/usbd_core.c ****   */
 254:STM32F411/Middlewares/ST/STM32_USB_Device_Library/Core/Src/usbd_core.c **** USBD_StatusTypeDef  USBD_RegisterClassComposite(USBD_HandleTypeDef *pdev, USBD_ClassTypeDef *pclass
 255:STM32F411/Middlewares/ST/STM32_USB_Device_Library/Core/Src/usbd_core.c ****                                                 USBD_CompositeClassTypeDef classtype, uint8_t *EpAd
 256:STM32F411/Middlewares/ST/STM32_USB_Device_Library/Core/Src/usbd_core.c **** {
 257:STM32F411/Middlewares/ST/STM32_USB_Device_Library/Core/Src/usbd_core.c ****   USBD_StatusTypeDef   ret = USBD_OK;
 258:STM32F411/Middlewares/ST/STM32_USB_Device_Library/Core/Src/usbd_core.c ****   uint16_t len = 0U;
 259:STM32F411/Middlewares/ST/STM32_USB_Device_Library/Core/Src/usbd_core.c **** 
 260:STM32F411/Middlewares/ST/STM32_USB_Device_Library/Core/Src/usbd_core.c ****   if ((pdev->classId < USBD_MAX_SUPPORTED_CLASS) && (pdev->NumClasses < USBD_MAX_SUPPORTED_CLASS))
 261:STM32F411/Middlewares/ST/STM32_USB_Device_Library/Core/Src/usbd_core.c ****   {
 262:STM32F411/Middlewares/ST/STM32_USB_Device_Library/Core/Src/usbd_core.c ****     if ((uint32_t)pclass != 0U)
 263:STM32F411/Middlewares/ST/STM32_USB_Device_Library/Core/Src/usbd_core.c ****     {
 264:STM32F411/Middlewares/ST/STM32_USB_Device_Library/Core/Src/usbd_core.c ****       /* Link the class to the USB Device handle */
 265:STM32F411/Middlewares/ST/STM32_USB_Device_Library/Core/Src/usbd_core.c ****       pdev->pClass[pdev->classId] = pclass;
 266:STM32F411/Middlewares/ST/STM32_USB_Device_Library/Core/Src/usbd_core.c ****       ret = USBD_OK;
 267:STM32F411/Middlewares/ST/STM32_USB_Device_Library/Core/Src/usbd_core.c **** 
 268:STM32F411/Middlewares/ST/STM32_USB_Device_Library/Core/Src/usbd_core.c ****       pdev->tclasslist[pdev->classId].EpAdd = EpAddr;
 269:STM32F411/Middlewares/ST/STM32_USB_Device_Library/Core/Src/usbd_core.c **** 
 270:STM32F411/Middlewares/ST/STM32_USB_Device_Library/Core/Src/usbd_core.c ****       /* Call the composite class builder */
 271:STM32F411/Middlewares/ST/STM32_USB_Device_Library/Core/Src/usbd_core.c ****       (void)USBD_CMPSIT_AddClass(pdev, pclass, classtype, 0);
 272:STM32F411/Middlewares/ST/STM32_USB_Device_Library/Core/Src/usbd_core.c **** 
 273:STM32F411/Middlewares/ST/STM32_USB_Device_Library/Core/Src/usbd_core.c ****       /* Increment the ClassId for the next occurrence */
 274:STM32F411/Middlewares/ST/STM32_USB_Device_Library/Core/Src/usbd_core.c ****       pdev->classId ++;
 275:STM32F411/Middlewares/ST/STM32_USB_Device_Library/Core/Src/usbd_core.c ****       pdev->NumClasses ++;
 276:STM32F411/Middlewares/ST/STM32_USB_Device_Library/Core/Src/usbd_core.c ****     }
 277:STM32F411/Middlewares/ST/STM32_USB_Device_Library/Core/Src/usbd_core.c ****     else
 278:STM32F411/Middlewares/ST/STM32_USB_Device_Library/Core/Src/usbd_core.c ****     {
 279:STM32F411/Middlewares/ST/STM32_USB_Device_Library/Core/Src/usbd_core.c **** #if (USBD_DEBUG_LEVEL > 1U)
ARM GAS  /tmp/cc9vlpLu.s 			page 11


 280:STM32F411/Middlewares/ST/STM32_USB_Device_Library/Core/Src/usbd_core.c ****       USBD_ErrLog("Invalid Class handle");
 281:STM32F411/Middlewares/ST/STM32_USB_Device_Library/Core/Src/usbd_core.c **** #endif /* (USBD_DEBUG_LEVEL > 1U) */
 282:STM32F411/Middlewares/ST/STM32_USB_Device_Library/Core/Src/usbd_core.c ****       ret = USBD_FAIL;
 283:STM32F411/Middlewares/ST/STM32_USB_Device_Library/Core/Src/usbd_core.c ****     }
 284:STM32F411/Middlewares/ST/STM32_USB_Device_Library/Core/Src/usbd_core.c ****   }
 285:STM32F411/Middlewares/ST/STM32_USB_Device_Library/Core/Src/usbd_core.c **** 
 286:STM32F411/Middlewares/ST/STM32_USB_Device_Library/Core/Src/usbd_core.c ****   if (ret == USBD_OK)
 287:STM32F411/Middlewares/ST/STM32_USB_Device_Library/Core/Src/usbd_core.c ****   {
 288:STM32F411/Middlewares/ST/STM32_USB_Device_Library/Core/Src/usbd_core.c ****     /* Get Device Configuration Descriptor */
 289:STM32F411/Middlewares/ST/STM32_USB_Device_Library/Core/Src/usbd_core.c **** #ifdef USE_USB_HS
 290:STM32F411/Middlewares/ST/STM32_USB_Device_Library/Core/Src/usbd_core.c ****     pdev->pConfDesc = USBD_CMPSIT.GetHSConfigDescriptor(&len);
 291:STM32F411/Middlewares/ST/STM32_USB_Device_Library/Core/Src/usbd_core.c **** #else /* Default USE_USB_FS */
 292:STM32F411/Middlewares/ST/STM32_USB_Device_Library/Core/Src/usbd_core.c ****     pdev->pConfDesc = USBD_CMPSIT.GetFSConfigDescriptor(&len);
 293:STM32F411/Middlewares/ST/STM32_USB_Device_Library/Core/Src/usbd_core.c **** #endif /* USE_USB_FS */
 294:STM32F411/Middlewares/ST/STM32_USB_Device_Library/Core/Src/usbd_core.c ****   }
 295:STM32F411/Middlewares/ST/STM32_USB_Device_Library/Core/Src/usbd_core.c **** 
 296:STM32F411/Middlewares/ST/STM32_USB_Device_Library/Core/Src/usbd_core.c ****   return ret;
 297:STM32F411/Middlewares/ST/STM32_USB_Device_Library/Core/Src/usbd_core.c **** }
 298:STM32F411/Middlewares/ST/STM32_USB_Device_Library/Core/Src/usbd_core.c **** 
 299:STM32F411/Middlewares/ST/STM32_USB_Device_Library/Core/Src/usbd_core.c **** /**
 300:STM32F411/Middlewares/ST/STM32_USB_Device_Library/Core/Src/usbd_core.c ****   * @brief  USBD_UnRegisterClassComposite
 301:STM32F411/Middlewares/ST/STM32_USB_Device_Library/Core/Src/usbd_core.c ****   *         UnLink all composite class drivers from Device Core.
 302:STM32F411/Middlewares/ST/STM32_USB_Device_Library/Core/Src/usbd_core.c ****   * @param  pDevice : Device Handle
 303:STM32F411/Middlewares/ST/STM32_USB_Device_Library/Core/Src/usbd_core.c ****   * @retval USBD Status
 304:STM32F411/Middlewares/ST/STM32_USB_Device_Library/Core/Src/usbd_core.c ****   */
 305:STM32F411/Middlewares/ST/STM32_USB_Device_Library/Core/Src/usbd_core.c **** USBD_StatusTypeDef  USBD_UnRegisterClassComposite(USBD_HandleTypeDef *pdev)
 306:STM32F411/Middlewares/ST/STM32_USB_Device_Library/Core/Src/usbd_core.c **** {
 307:STM32F411/Middlewares/ST/STM32_USB_Device_Library/Core/Src/usbd_core.c ****   USBD_StatusTypeDef   ret = USBD_FAIL;
 308:STM32F411/Middlewares/ST/STM32_USB_Device_Library/Core/Src/usbd_core.c ****   uint8_t idx1;
 309:STM32F411/Middlewares/ST/STM32_USB_Device_Library/Core/Src/usbd_core.c ****   uint8_t idx2;
 310:STM32F411/Middlewares/ST/STM32_USB_Device_Library/Core/Src/usbd_core.c **** 
 311:STM32F411/Middlewares/ST/STM32_USB_Device_Library/Core/Src/usbd_core.c ****   /* Unroll all activated classes */
 312:STM32F411/Middlewares/ST/STM32_USB_Device_Library/Core/Src/usbd_core.c ****   for (idx1 = 0; idx1 < pdev->NumClasses; idx1++)
 313:STM32F411/Middlewares/ST/STM32_USB_Device_Library/Core/Src/usbd_core.c ****   {
 314:STM32F411/Middlewares/ST/STM32_USB_Device_Library/Core/Src/usbd_core.c ****     /* Check if the class correspond to the requested type and if it is active */
 315:STM32F411/Middlewares/ST/STM32_USB_Device_Library/Core/Src/usbd_core.c ****     if (pdev->tclasslist[idx1].Active == 1U)
 316:STM32F411/Middlewares/ST/STM32_USB_Device_Library/Core/Src/usbd_core.c ****     {
 317:STM32F411/Middlewares/ST/STM32_USB_Device_Library/Core/Src/usbd_core.c ****       /* Set the new class ID */
 318:STM32F411/Middlewares/ST/STM32_USB_Device_Library/Core/Src/usbd_core.c ****       pdev->classId = idx1;
 319:STM32F411/Middlewares/ST/STM32_USB_Device_Library/Core/Src/usbd_core.c **** 
 320:STM32F411/Middlewares/ST/STM32_USB_Device_Library/Core/Src/usbd_core.c ****       /* Free resources used by the selected class */
 321:STM32F411/Middlewares/ST/STM32_USB_Device_Library/Core/Src/usbd_core.c ****       if (pdev->pClass[pdev->classId] != NULL)
 322:STM32F411/Middlewares/ST/STM32_USB_Device_Library/Core/Src/usbd_core.c ****       {
 323:STM32F411/Middlewares/ST/STM32_USB_Device_Library/Core/Src/usbd_core.c ****         /* Free Class Resources */
 324:STM32F411/Middlewares/ST/STM32_USB_Device_Library/Core/Src/usbd_core.c ****         if (pdev->pClass[pdev->classId]->DeInit(pdev, (uint8_t)pdev->dev_config) != 0U)
 325:STM32F411/Middlewares/ST/STM32_USB_Device_Library/Core/Src/usbd_core.c ****         {
 326:STM32F411/Middlewares/ST/STM32_USB_Device_Library/Core/Src/usbd_core.c **** #if (USBD_DEBUG_LEVEL > 1U)
 327:STM32F411/Middlewares/ST/STM32_USB_Device_Library/Core/Src/usbd_core.c ****           USBD_ErrLog("Class DeInit didn't succeed!, can't unregister selected class");
 328:STM32F411/Middlewares/ST/STM32_USB_Device_Library/Core/Src/usbd_core.c **** #endif /* (USBD_DEBUG_LEVEL > 1U) */
 329:STM32F411/Middlewares/ST/STM32_USB_Device_Library/Core/Src/usbd_core.c **** 
 330:STM32F411/Middlewares/ST/STM32_USB_Device_Library/Core/Src/usbd_core.c ****           ret = USBD_FAIL;
 331:STM32F411/Middlewares/ST/STM32_USB_Device_Library/Core/Src/usbd_core.c ****         }
 332:STM32F411/Middlewares/ST/STM32_USB_Device_Library/Core/Src/usbd_core.c ****       }
 333:STM32F411/Middlewares/ST/STM32_USB_Device_Library/Core/Src/usbd_core.c **** 
 334:STM32F411/Middlewares/ST/STM32_USB_Device_Library/Core/Src/usbd_core.c ****       /* Free the class pointer */
 335:STM32F411/Middlewares/ST/STM32_USB_Device_Library/Core/Src/usbd_core.c ****       pdev->pClass[pdev->classId] = NULL;
 336:STM32F411/Middlewares/ST/STM32_USB_Device_Library/Core/Src/usbd_core.c **** 
ARM GAS  /tmp/cc9vlpLu.s 			page 12


 337:STM32F411/Middlewares/ST/STM32_USB_Device_Library/Core/Src/usbd_core.c ****       /* Free the class location in classes table and reset its parameters to zero */
 338:STM32F411/Middlewares/ST/STM32_USB_Device_Library/Core/Src/usbd_core.c ****       pdev->tclasslist[pdev->classId].ClassType = CLASS_TYPE_NONE;
 339:STM32F411/Middlewares/ST/STM32_USB_Device_Library/Core/Src/usbd_core.c ****       pdev->tclasslist[pdev->classId].ClassId = 0U;
 340:STM32F411/Middlewares/ST/STM32_USB_Device_Library/Core/Src/usbd_core.c ****       pdev->tclasslist[pdev->classId].Active = 0U;
 341:STM32F411/Middlewares/ST/STM32_USB_Device_Library/Core/Src/usbd_core.c ****       pdev->tclasslist[pdev->classId].NumEps = 0U;
 342:STM32F411/Middlewares/ST/STM32_USB_Device_Library/Core/Src/usbd_core.c ****       pdev->tclasslist[pdev->classId].NumIf = 0U;
 343:STM32F411/Middlewares/ST/STM32_USB_Device_Library/Core/Src/usbd_core.c ****       pdev->tclasslist[pdev->classId].CurrPcktSze = 0U;
 344:STM32F411/Middlewares/ST/STM32_USB_Device_Library/Core/Src/usbd_core.c **** 
 345:STM32F411/Middlewares/ST/STM32_USB_Device_Library/Core/Src/usbd_core.c ****       for (idx2 = 0U; idx2 < USBD_MAX_CLASS_ENDPOINTS; idx2++)
 346:STM32F411/Middlewares/ST/STM32_USB_Device_Library/Core/Src/usbd_core.c ****       {
 347:STM32F411/Middlewares/ST/STM32_USB_Device_Library/Core/Src/usbd_core.c ****         pdev->tclasslist[pdev->classId].Eps[idx2].add = 0U;
 348:STM32F411/Middlewares/ST/STM32_USB_Device_Library/Core/Src/usbd_core.c ****         pdev->tclasslist[pdev->classId].Eps[idx2].type = 0U;
 349:STM32F411/Middlewares/ST/STM32_USB_Device_Library/Core/Src/usbd_core.c ****         pdev->tclasslist[pdev->classId].Eps[idx2].size = 0U;
 350:STM32F411/Middlewares/ST/STM32_USB_Device_Library/Core/Src/usbd_core.c ****         pdev->tclasslist[pdev->classId].Eps[idx2].is_used = 0U;
 351:STM32F411/Middlewares/ST/STM32_USB_Device_Library/Core/Src/usbd_core.c ****       }
 352:STM32F411/Middlewares/ST/STM32_USB_Device_Library/Core/Src/usbd_core.c **** 
 353:STM32F411/Middlewares/ST/STM32_USB_Device_Library/Core/Src/usbd_core.c ****       for (idx2 = 0U; idx2 < USBD_MAX_CLASS_INTERFACES; idx2++)
 354:STM32F411/Middlewares/ST/STM32_USB_Device_Library/Core/Src/usbd_core.c ****       {
 355:STM32F411/Middlewares/ST/STM32_USB_Device_Library/Core/Src/usbd_core.c ****         pdev->tclasslist[pdev->classId].Ifs[idx2] = 0U;
 356:STM32F411/Middlewares/ST/STM32_USB_Device_Library/Core/Src/usbd_core.c ****       }
 357:STM32F411/Middlewares/ST/STM32_USB_Device_Library/Core/Src/usbd_core.c ****     }
 358:STM32F411/Middlewares/ST/STM32_USB_Device_Library/Core/Src/usbd_core.c ****   }
 359:STM32F411/Middlewares/ST/STM32_USB_Device_Library/Core/Src/usbd_core.c **** 
 360:STM32F411/Middlewares/ST/STM32_USB_Device_Library/Core/Src/usbd_core.c ****   /* Reset the configuration descriptor */
 361:STM32F411/Middlewares/ST/STM32_USB_Device_Library/Core/Src/usbd_core.c ****   (void)USBD_CMPST_ClearConfDesc(pdev);
 362:STM32F411/Middlewares/ST/STM32_USB_Device_Library/Core/Src/usbd_core.c **** 
 363:STM32F411/Middlewares/ST/STM32_USB_Device_Library/Core/Src/usbd_core.c ****   /* Reset the class ID and number of classes */
 364:STM32F411/Middlewares/ST/STM32_USB_Device_Library/Core/Src/usbd_core.c ****   pdev->classId = 0U;
 365:STM32F411/Middlewares/ST/STM32_USB_Device_Library/Core/Src/usbd_core.c ****   pdev->NumClasses = 0U;
 366:STM32F411/Middlewares/ST/STM32_USB_Device_Library/Core/Src/usbd_core.c **** 
 367:STM32F411/Middlewares/ST/STM32_USB_Device_Library/Core/Src/usbd_core.c ****   return ret;
 368:STM32F411/Middlewares/ST/STM32_USB_Device_Library/Core/Src/usbd_core.c **** }
 369:STM32F411/Middlewares/ST/STM32_USB_Device_Library/Core/Src/usbd_core.c **** #endif /* USE_USBD_COMPOSITE */
 370:STM32F411/Middlewares/ST/STM32_USB_Device_Library/Core/Src/usbd_core.c **** 
 371:STM32F411/Middlewares/ST/STM32_USB_Device_Library/Core/Src/usbd_core.c **** #if (USBD_USER_REGISTER_CALLBACK == 1U)
 372:STM32F411/Middlewares/ST/STM32_USB_Device_Library/Core/Src/usbd_core.c **** /**
 373:STM32F411/Middlewares/ST/STM32_USB_Device_Library/Core/Src/usbd_core.c ****   * @brief  USBD_RegisterDevStateCallback
 374:STM32F411/Middlewares/ST/STM32_USB_Device_Library/Core/Src/usbd_core.c ****   * @param  pdev : Device Handle
 375:STM32F411/Middlewares/ST/STM32_USB_Device_Library/Core/Src/usbd_core.c ****   * @param  pUserCallback: User Callback
 376:STM32F411/Middlewares/ST/STM32_USB_Device_Library/Core/Src/usbd_core.c ****   * @retval USBD Status
 377:STM32F411/Middlewares/ST/STM32_USB_Device_Library/Core/Src/usbd_core.c ****   */
 378:STM32F411/Middlewares/ST/STM32_USB_Device_Library/Core/Src/usbd_core.c **** USBD_StatusTypeDef USBD_RegisterDevStateCallback(USBD_HandleTypeDef *pdev, USBD_DevStateCallbackTyp
 379:STM32F411/Middlewares/ST/STM32_USB_Device_Library/Core/Src/usbd_core.c **** {
 380:STM32F411/Middlewares/ST/STM32_USB_Device_Library/Core/Src/usbd_core.c ****   pdev->DevStateCallback = pUserCallback;
 381:STM32F411/Middlewares/ST/STM32_USB_Device_Library/Core/Src/usbd_core.c **** 
 382:STM32F411/Middlewares/ST/STM32_USB_Device_Library/Core/Src/usbd_core.c ****   return USBD_OK;
 383:STM32F411/Middlewares/ST/STM32_USB_Device_Library/Core/Src/usbd_core.c **** }
 384:STM32F411/Middlewares/ST/STM32_USB_Device_Library/Core/Src/usbd_core.c **** #endif /* USBD_USER_REGISTER_CALLBACK */
 385:STM32F411/Middlewares/ST/STM32_USB_Device_Library/Core/Src/usbd_core.c **** /**
 386:STM32F411/Middlewares/ST/STM32_USB_Device_Library/Core/Src/usbd_core.c ****   * @brief  USBD_Start
 387:STM32F411/Middlewares/ST/STM32_USB_Device_Library/Core/Src/usbd_core.c ****   *         Start the USB Device Core.
 388:STM32F411/Middlewares/ST/STM32_USB_Device_Library/Core/Src/usbd_core.c ****   * @param  pdev: Device Handle
 389:STM32F411/Middlewares/ST/STM32_USB_Device_Library/Core/Src/usbd_core.c ****   * @retval USBD Status
 390:STM32F411/Middlewares/ST/STM32_USB_Device_Library/Core/Src/usbd_core.c ****   */
 391:STM32F411/Middlewares/ST/STM32_USB_Device_Library/Core/Src/usbd_core.c **** USBD_StatusTypeDef USBD_Start(USBD_HandleTypeDef *pdev)
 392:STM32F411/Middlewares/ST/STM32_USB_Device_Library/Core/Src/usbd_core.c **** {
 284              		.loc 1 392 1 is_stmt 1 view -0
ARM GAS  /tmp/cc9vlpLu.s 			page 13


 285              		.cfi_startproc
 286              		@ args = 0, pretend = 0, frame = 0
 287              		@ frame_needed = 0, uses_anonymous_args = 0
 288              		.loc 1 392 1 is_stmt 0 view .LVU78
 289 0000 08B5     		push	{r3, lr}
 290              	.LCFI6:
 291              		.cfi_def_cfa_offset 8
 292              		.cfi_offset 3, -8
 293              		.cfi_offset 14, -4
 393:STM32F411/Middlewares/ST/STM32_USB_Device_Library/Core/Src/usbd_core.c **** #ifdef USE_USBD_COMPOSITE
 394:STM32F411/Middlewares/ST/STM32_USB_Device_Library/Core/Src/usbd_core.c ****   pdev->classId = 0U;
 395:STM32F411/Middlewares/ST/STM32_USB_Device_Library/Core/Src/usbd_core.c **** #endif /* USE_USBD_COMPOSITE */
 396:STM32F411/Middlewares/ST/STM32_USB_Device_Library/Core/Src/usbd_core.c **** 
 397:STM32F411/Middlewares/ST/STM32_USB_Device_Library/Core/Src/usbd_core.c ****   /* Start the low level driver  */
 398:STM32F411/Middlewares/ST/STM32_USB_Device_Library/Core/Src/usbd_core.c ****   return USBD_LL_Start(pdev);
 294              		.loc 1 398 3 is_stmt 1 view .LVU79
 295              		.loc 1 398 10 is_stmt 0 view .LVU80
 296 0002 FFF7FEFF 		bl	USBD_LL_Start
 297              	.LVL19:
 399:STM32F411/Middlewares/ST/STM32_USB_Device_Library/Core/Src/usbd_core.c **** }
 298              		.loc 1 399 1 view .LVU81
 299 0006 08BD     		pop	{r3, pc}
 300              		.cfi_endproc
 301              	.LFE141:
 303              		.section	.text.USBD_Stop,"ax",%progbits
 304              		.align	1
 305              		.global	USBD_Stop
 306              		.syntax unified
 307              		.thumb
 308              		.thumb_func
 310              	USBD_Stop:
 311              	.LVL20:
 312              	.LFB142:
 400:STM32F411/Middlewares/ST/STM32_USB_Device_Library/Core/Src/usbd_core.c **** 
 401:STM32F411/Middlewares/ST/STM32_USB_Device_Library/Core/Src/usbd_core.c **** /**
 402:STM32F411/Middlewares/ST/STM32_USB_Device_Library/Core/Src/usbd_core.c ****   * @brief  USBD_Stop
 403:STM32F411/Middlewares/ST/STM32_USB_Device_Library/Core/Src/usbd_core.c ****   *         Stop the USB Device Core.
 404:STM32F411/Middlewares/ST/STM32_USB_Device_Library/Core/Src/usbd_core.c ****   * @param  pdev: Device Handle
 405:STM32F411/Middlewares/ST/STM32_USB_Device_Library/Core/Src/usbd_core.c ****   * @retval USBD Status
 406:STM32F411/Middlewares/ST/STM32_USB_Device_Library/Core/Src/usbd_core.c ****   */
 407:STM32F411/Middlewares/ST/STM32_USB_Device_Library/Core/Src/usbd_core.c **** USBD_StatusTypeDef USBD_Stop(USBD_HandleTypeDef *pdev)
 408:STM32F411/Middlewares/ST/STM32_USB_Device_Library/Core/Src/usbd_core.c **** {
 313              		.loc 1 408 1 is_stmt 1 view -0
 314              		.cfi_startproc
 315              		@ args = 0, pretend = 0, frame = 0
 316              		@ frame_needed = 0, uses_anonymous_args = 0
 317              		.loc 1 408 1 is_stmt 0 view .LVU83
 318 0000 10B5     		push	{r4, lr}
 319              	.LCFI7:
 320              		.cfi_def_cfa_offset 8
 321              		.cfi_offset 4, -8
 322              		.cfi_offset 14, -4
 323 0002 0446     		mov	r4, r0
 409:STM32F411/Middlewares/ST/STM32_USB_Device_Library/Core/Src/usbd_core.c ****   /* Disconnect USB Device */
 410:STM32F411/Middlewares/ST/STM32_USB_Device_Library/Core/Src/usbd_core.c ****   (void)USBD_LL_Stop(pdev);
 324              		.loc 1 410 3 is_stmt 1 view .LVU84
 325              		.loc 1 410 9 is_stmt 0 view .LVU85
ARM GAS  /tmp/cc9vlpLu.s 			page 14


 326 0004 FFF7FEFF 		bl	USBD_LL_Stop
 327              	.LVL21:
 411:STM32F411/Middlewares/ST/STM32_USB_Device_Library/Core/Src/usbd_core.c **** 
 412:STM32F411/Middlewares/ST/STM32_USB_Device_Library/Core/Src/usbd_core.c ****   /* Free Class Resources */
 413:STM32F411/Middlewares/ST/STM32_USB_Device_Library/Core/Src/usbd_core.c **** #ifdef USE_USBD_COMPOSITE
 414:STM32F411/Middlewares/ST/STM32_USB_Device_Library/Core/Src/usbd_core.c ****   /* Parse the table of classes in use */
 415:STM32F411/Middlewares/ST/STM32_USB_Device_Library/Core/Src/usbd_core.c ****   for (uint32_t i = 0U; i < USBD_MAX_SUPPORTED_CLASS; i++)
 416:STM32F411/Middlewares/ST/STM32_USB_Device_Library/Core/Src/usbd_core.c ****   {
 417:STM32F411/Middlewares/ST/STM32_USB_Device_Library/Core/Src/usbd_core.c ****     /* Check if current class is in use */
 418:STM32F411/Middlewares/ST/STM32_USB_Device_Library/Core/Src/usbd_core.c ****     if ((pdev->tclasslist[i].Active) == 1U)
 419:STM32F411/Middlewares/ST/STM32_USB_Device_Library/Core/Src/usbd_core.c ****     {
 420:STM32F411/Middlewares/ST/STM32_USB_Device_Library/Core/Src/usbd_core.c ****       if (pdev->pClass[i] != NULL)
 421:STM32F411/Middlewares/ST/STM32_USB_Device_Library/Core/Src/usbd_core.c ****       {
 422:STM32F411/Middlewares/ST/STM32_USB_Device_Library/Core/Src/usbd_core.c ****         pdev->classId = i;
 423:STM32F411/Middlewares/ST/STM32_USB_Device_Library/Core/Src/usbd_core.c ****         /* Free Class Resources */
 424:STM32F411/Middlewares/ST/STM32_USB_Device_Library/Core/Src/usbd_core.c ****         (void)pdev->pClass[i]->DeInit(pdev, (uint8_t)pdev->dev_config);
 425:STM32F411/Middlewares/ST/STM32_USB_Device_Library/Core/Src/usbd_core.c ****       }
 426:STM32F411/Middlewares/ST/STM32_USB_Device_Library/Core/Src/usbd_core.c ****     }
 427:STM32F411/Middlewares/ST/STM32_USB_Device_Library/Core/Src/usbd_core.c ****   }
 428:STM32F411/Middlewares/ST/STM32_USB_Device_Library/Core/Src/usbd_core.c **** 
 429:STM32F411/Middlewares/ST/STM32_USB_Device_Library/Core/Src/usbd_core.c ****   /* Reset the class ID */
 430:STM32F411/Middlewares/ST/STM32_USB_Device_Library/Core/Src/usbd_core.c ****   pdev->classId = 0U;
 431:STM32F411/Middlewares/ST/STM32_USB_Device_Library/Core/Src/usbd_core.c **** #else
 432:STM32F411/Middlewares/ST/STM32_USB_Device_Library/Core/Src/usbd_core.c ****   if (pdev->pClass[0] != NULL)
 328              		.loc 1 432 3 is_stmt 1 view .LVU86
 329              		.loc 1 432 19 is_stmt 0 view .LVU87
 330 0008 D4F8B832 		ldr	r3, [r4, #696]
 331              		.loc 1 432 6 view .LVU88
 332 000c 1BB1     		cbz	r3, .L20
 433:STM32F411/Middlewares/ST/STM32_USB_Device_Library/Core/Src/usbd_core.c ****   {
 434:STM32F411/Middlewares/ST/STM32_USB_Device_Library/Core/Src/usbd_core.c ****     (void)pdev->pClass[0]->DeInit(pdev, (uint8_t)pdev->dev_config);
 333              		.loc 1 434 5 is_stmt 1 view .LVU89
 334              		.loc 1 434 26 is_stmt 0 view .LVU90
 335 000e 5B68     		ldr	r3, [r3, #4]
 336              		.loc 1 434 11 view .LVU91
 337 0010 2179     		ldrb	r1, [r4, #4]	@ zero_extendqisi2
 338 0012 2046     		mov	r0, r4
 339 0014 9847     		blx	r3
 340              	.LVL22:
 341              	.L20:
 435:STM32F411/Middlewares/ST/STM32_USB_Device_Library/Core/Src/usbd_core.c ****   }
 436:STM32F411/Middlewares/ST/STM32_USB_Device_Library/Core/Src/usbd_core.c **** #endif /* USE_USBD_COMPOSITE */
 437:STM32F411/Middlewares/ST/STM32_USB_Device_Library/Core/Src/usbd_core.c **** 
 438:STM32F411/Middlewares/ST/STM32_USB_Device_Library/Core/Src/usbd_core.c ****   return USBD_OK;
 342              		.loc 1 438 3 is_stmt 1 view .LVU92
 439:STM32F411/Middlewares/ST/STM32_USB_Device_Library/Core/Src/usbd_core.c **** }
 343              		.loc 1 439 1 is_stmt 0 view .LVU93
 344 0016 0020     		movs	r0, #0
 345 0018 10BD     		pop	{r4, pc}
 346              		.loc 1 439 1 view .LVU94
 347              		.cfi_endproc
 348              	.LFE142:
 350              		.section	.text.USBD_RunTestMode,"ax",%progbits
 351              		.align	1
 352              		.global	USBD_RunTestMode
 353              		.syntax unified
 354              		.thumb
ARM GAS  /tmp/cc9vlpLu.s 			page 15


 355              		.thumb_func
 357              	USBD_RunTestMode:
 358              	.LVL23:
 359              	.LFB143:
 440:STM32F411/Middlewares/ST/STM32_USB_Device_Library/Core/Src/usbd_core.c **** 
 441:STM32F411/Middlewares/ST/STM32_USB_Device_Library/Core/Src/usbd_core.c **** /**
 442:STM32F411/Middlewares/ST/STM32_USB_Device_Library/Core/Src/usbd_core.c ****   * @brief  USBD_RunTestMode
 443:STM32F411/Middlewares/ST/STM32_USB_Device_Library/Core/Src/usbd_core.c ****   *         Launch test mode process
 444:STM32F411/Middlewares/ST/STM32_USB_Device_Library/Core/Src/usbd_core.c ****   * @param  pdev: device instance
 445:STM32F411/Middlewares/ST/STM32_USB_Device_Library/Core/Src/usbd_core.c ****   * @retval status
 446:STM32F411/Middlewares/ST/STM32_USB_Device_Library/Core/Src/usbd_core.c ****   */
 447:STM32F411/Middlewares/ST/STM32_USB_Device_Library/Core/Src/usbd_core.c **** USBD_StatusTypeDef USBD_RunTestMode(USBD_HandleTypeDef *pdev)
 448:STM32F411/Middlewares/ST/STM32_USB_Device_Library/Core/Src/usbd_core.c **** {
 360              		.loc 1 448 1 is_stmt 1 view -0
 361              		.cfi_startproc
 362              		@ args = 0, pretend = 0, frame = 0
 363              		@ frame_needed = 0, uses_anonymous_args = 0
 364              		@ link register save eliminated.
 449:STM32F411/Middlewares/ST/STM32_USB_Device_Library/Core/Src/usbd_core.c **** #ifdef USBD_HS_TESTMODE_ENABLE
 450:STM32F411/Middlewares/ST/STM32_USB_Device_Library/Core/Src/usbd_core.c ****   USBD_StatusTypeDef ret;
 451:STM32F411/Middlewares/ST/STM32_USB_Device_Library/Core/Src/usbd_core.c **** 
 452:STM32F411/Middlewares/ST/STM32_USB_Device_Library/Core/Src/usbd_core.c ****   /* Run USB HS test mode */
 453:STM32F411/Middlewares/ST/STM32_USB_Device_Library/Core/Src/usbd_core.c ****   ret = USBD_LL_SetTestMode(pdev, pdev->dev_test_mode);
 454:STM32F411/Middlewares/ST/STM32_USB_Device_Library/Core/Src/usbd_core.c **** 
 455:STM32F411/Middlewares/ST/STM32_USB_Device_Library/Core/Src/usbd_core.c ****   return ret;
 456:STM32F411/Middlewares/ST/STM32_USB_Device_Library/Core/Src/usbd_core.c **** #else
 457:STM32F411/Middlewares/ST/STM32_USB_Device_Library/Core/Src/usbd_core.c ****   /* Prevent unused argument compilation warning */
 458:STM32F411/Middlewares/ST/STM32_USB_Device_Library/Core/Src/usbd_core.c ****   UNUSED(pdev);
 365              		.loc 1 458 3 view .LVU96
 459:STM32F411/Middlewares/ST/STM32_USB_Device_Library/Core/Src/usbd_core.c **** 
 460:STM32F411/Middlewares/ST/STM32_USB_Device_Library/Core/Src/usbd_core.c ****   return USBD_OK;
 366              		.loc 1 460 3 view .LVU97
 461:STM32F411/Middlewares/ST/STM32_USB_Device_Library/Core/Src/usbd_core.c **** #endif /* USBD_HS_TESTMODE_ENABLE */
 462:STM32F411/Middlewares/ST/STM32_USB_Device_Library/Core/Src/usbd_core.c **** }
 367              		.loc 1 462 1 is_stmt 0 view .LVU98
 368 0000 0020     		movs	r0, #0
 369              	.LVL24:
 370              		.loc 1 462 1 view .LVU99
 371 0002 7047     		bx	lr
 372              		.cfi_endproc
 373              	.LFE143:
 375              		.section	.text.USBD_SetClassConfig,"ax",%progbits
 376              		.align	1
 377              		.global	USBD_SetClassConfig
 378              		.syntax unified
 379              		.thumb
 380              		.thumb_func
 382              	USBD_SetClassConfig:
 383              	.LVL25:
 384              	.LFB144:
 463:STM32F411/Middlewares/ST/STM32_USB_Device_Library/Core/Src/usbd_core.c **** 
 464:STM32F411/Middlewares/ST/STM32_USB_Device_Library/Core/Src/usbd_core.c **** /**
 465:STM32F411/Middlewares/ST/STM32_USB_Device_Library/Core/Src/usbd_core.c ****   * @brief  USBD_SetClassConfig
 466:STM32F411/Middlewares/ST/STM32_USB_Device_Library/Core/Src/usbd_core.c ****   *        Configure device and start the interface
 467:STM32F411/Middlewares/ST/STM32_USB_Device_Library/Core/Src/usbd_core.c ****   * @param  pdev: device instance
 468:STM32F411/Middlewares/ST/STM32_USB_Device_Library/Core/Src/usbd_core.c ****   * @param  cfgidx: configuration index
 469:STM32F411/Middlewares/ST/STM32_USB_Device_Library/Core/Src/usbd_core.c ****   * @retval status
ARM GAS  /tmp/cc9vlpLu.s 			page 16


 470:STM32F411/Middlewares/ST/STM32_USB_Device_Library/Core/Src/usbd_core.c ****   */
 471:STM32F411/Middlewares/ST/STM32_USB_Device_Library/Core/Src/usbd_core.c **** 
 472:STM32F411/Middlewares/ST/STM32_USB_Device_Library/Core/Src/usbd_core.c **** USBD_StatusTypeDef USBD_SetClassConfig(USBD_HandleTypeDef *pdev, uint8_t cfgidx)
 473:STM32F411/Middlewares/ST/STM32_USB_Device_Library/Core/Src/usbd_core.c **** {
 385              		.loc 1 473 1 is_stmt 1 view -0
 386              		.cfi_startproc
 387              		@ args = 0, pretend = 0, frame = 0
 388              		@ frame_needed = 0, uses_anonymous_args = 0
 389              		.loc 1 473 1 is_stmt 0 view .LVU101
 390 0000 08B5     		push	{r3, lr}
 391              	.LCFI8:
 392              		.cfi_def_cfa_offset 8
 393              		.cfi_offset 3, -8
 394              		.cfi_offset 14, -4
 474:STM32F411/Middlewares/ST/STM32_USB_Device_Library/Core/Src/usbd_core.c ****   USBD_StatusTypeDef ret = USBD_OK;
 395              		.loc 1 474 3 is_stmt 1 view .LVU102
 396              	.LVL26:
 475:STM32F411/Middlewares/ST/STM32_USB_Device_Library/Core/Src/usbd_core.c **** 
 476:STM32F411/Middlewares/ST/STM32_USB_Device_Library/Core/Src/usbd_core.c **** #ifdef USE_USBD_COMPOSITE
 477:STM32F411/Middlewares/ST/STM32_USB_Device_Library/Core/Src/usbd_core.c ****   /* Parse the table of classes in use */
 478:STM32F411/Middlewares/ST/STM32_USB_Device_Library/Core/Src/usbd_core.c ****   for (uint32_t i = 0U; i < USBD_MAX_SUPPORTED_CLASS; i++)
 479:STM32F411/Middlewares/ST/STM32_USB_Device_Library/Core/Src/usbd_core.c ****   {
 480:STM32F411/Middlewares/ST/STM32_USB_Device_Library/Core/Src/usbd_core.c ****     /* Check if current class is in use */
 481:STM32F411/Middlewares/ST/STM32_USB_Device_Library/Core/Src/usbd_core.c ****     if ((pdev->tclasslist[i].Active) == 1U)
 482:STM32F411/Middlewares/ST/STM32_USB_Device_Library/Core/Src/usbd_core.c ****     {
 483:STM32F411/Middlewares/ST/STM32_USB_Device_Library/Core/Src/usbd_core.c ****       if (pdev->pClass[i] != NULL)
 484:STM32F411/Middlewares/ST/STM32_USB_Device_Library/Core/Src/usbd_core.c ****       {
 485:STM32F411/Middlewares/ST/STM32_USB_Device_Library/Core/Src/usbd_core.c ****         pdev->classId = i;
 486:STM32F411/Middlewares/ST/STM32_USB_Device_Library/Core/Src/usbd_core.c ****         /* Set configuration  and Start the Class*/
 487:STM32F411/Middlewares/ST/STM32_USB_Device_Library/Core/Src/usbd_core.c ****         if (pdev->pClass[i]->Init(pdev, cfgidx) != 0U)
 488:STM32F411/Middlewares/ST/STM32_USB_Device_Library/Core/Src/usbd_core.c ****         {
 489:STM32F411/Middlewares/ST/STM32_USB_Device_Library/Core/Src/usbd_core.c ****           ret = USBD_FAIL;
 490:STM32F411/Middlewares/ST/STM32_USB_Device_Library/Core/Src/usbd_core.c ****         }
 491:STM32F411/Middlewares/ST/STM32_USB_Device_Library/Core/Src/usbd_core.c ****       }
 492:STM32F411/Middlewares/ST/STM32_USB_Device_Library/Core/Src/usbd_core.c ****     }
 493:STM32F411/Middlewares/ST/STM32_USB_Device_Library/Core/Src/usbd_core.c ****   }
 494:STM32F411/Middlewares/ST/STM32_USB_Device_Library/Core/Src/usbd_core.c **** #else
 495:STM32F411/Middlewares/ST/STM32_USB_Device_Library/Core/Src/usbd_core.c ****   if (pdev->pClass[0] != NULL)
 397              		.loc 1 495 3 view .LVU103
 398              		.loc 1 495 19 is_stmt 0 view .LVU104
 399 0002 D0F8B832 		ldr	r3, [r0, #696]
 400              		.loc 1 495 6 view .LVU105
 401 0006 13B1     		cbz	r3, .L25
 496:STM32F411/Middlewares/ST/STM32_USB_Device_Library/Core/Src/usbd_core.c ****   {
 497:STM32F411/Middlewares/ST/STM32_USB_Device_Library/Core/Src/usbd_core.c ****     /* Set configuration and Start the Class */
 498:STM32F411/Middlewares/ST/STM32_USB_Device_Library/Core/Src/usbd_core.c ****     ret = (USBD_StatusTypeDef)pdev->pClass[0]->Init(pdev, cfgidx);
 402              		.loc 1 498 5 is_stmt 1 view .LVU106
 403              		.loc 1 498 46 is_stmt 0 view .LVU107
 404 0008 1B68     		ldr	r3, [r3]
 405              		.loc 1 498 31 view .LVU108
 406 000a 9847     		blx	r3
 407              	.LVL27:
 408              	.L24:
 499:STM32F411/Middlewares/ST/STM32_USB_Device_Library/Core/Src/usbd_core.c ****   }
 500:STM32F411/Middlewares/ST/STM32_USB_Device_Library/Core/Src/usbd_core.c **** #endif /* USE_USBD_COMPOSITE */
 501:STM32F411/Middlewares/ST/STM32_USB_Device_Library/Core/Src/usbd_core.c **** 
 502:STM32F411/Middlewares/ST/STM32_USB_Device_Library/Core/Src/usbd_core.c ****   return ret;
ARM GAS  /tmp/cc9vlpLu.s 			page 17


 409              		.loc 1 502 3 is_stmt 1 view .LVU109
 503:STM32F411/Middlewares/ST/STM32_USB_Device_Library/Core/Src/usbd_core.c **** }
 410              		.loc 1 503 1 is_stmt 0 view .LVU110
 411 000c 08BD     		pop	{r3, pc}
 412              	.LVL28:
 413              	.L25:
 474:STM32F411/Middlewares/ST/STM32_USB_Device_Library/Core/Src/usbd_core.c **** 
 414              		.loc 1 474 22 view .LVU111
 415 000e 0020     		movs	r0, #0
 416              	.LVL29:
 474:STM32F411/Middlewares/ST/STM32_USB_Device_Library/Core/Src/usbd_core.c **** 
 417              		.loc 1 474 22 view .LVU112
 418 0010 FCE7     		b	.L24
 419              		.cfi_endproc
 420              	.LFE144:
 422              		.section	.text.USBD_ClrClassConfig,"ax",%progbits
 423              		.align	1
 424              		.global	USBD_ClrClassConfig
 425              		.syntax unified
 426              		.thumb
 427              		.thumb_func
 429              	USBD_ClrClassConfig:
 430              	.LVL30:
 431              	.LFB145:
 504:STM32F411/Middlewares/ST/STM32_USB_Device_Library/Core/Src/usbd_core.c **** 
 505:STM32F411/Middlewares/ST/STM32_USB_Device_Library/Core/Src/usbd_core.c **** /**
 506:STM32F411/Middlewares/ST/STM32_USB_Device_Library/Core/Src/usbd_core.c ****   * @brief  USBD_ClrClassConfig
 507:STM32F411/Middlewares/ST/STM32_USB_Device_Library/Core/Src/usbd_core.c ****   *         Clear current configuration
 508:STM32F411/Middlewares/ST/STM32_USB_Device_Library/Core/Src/usbd_core.c ****   * @param  pdev: device instance
 509:STM32F411/Middlewares/ST/STM32_USB_Device_Library/Core/Src/usbd_core.c ****   * @param  cfgidx: configuration index
 510:STM32F411/Middlewares/ST/STM32_USB_Device_Library/Core/Src/usbd_core.c ****   * @retval status: USBD_StatusTypeDef
 511:STM32F411/Middlewares/ST/STM32_USB_Device_Library/Core/Src/usbd_core.c ****   */
 512:STM32F411/Middlewares/ST/STM32_USB_Device_Library/Core/Src/usbd_core.c **** USBD_StatusTypeDef USBD_ClrClassConfig(USBD_HandleTypeDef *pdev, uint8_t cfgidx)
 513:STM32F411/Middlewares/ST/STM32_USB_Device_Library/Core/Src/usbd_core.c **** {
 432              		.loc 1 513 1 is_stmt 1 view -0
 433              		.cfi_startproc
 434              		@ args = 0, pretend = 0, frame = 0
 435              		@ frame_needed = 0, uses_anonymous_args = 0
 436              		.loc 1 513 1 is_stmt 0 view .LVU114
 437 0000 08B5     		push	{r3, lr}
 438              	.LCFI9:
 439              		.cfi_def_cfa_offset 8
 440              		.cfi_offset 3, -8
 441              		.cfi_offset 14, -4
 514:STM32F411/Middlewares/ST/STM32_USB_Device_Library/Core/Src/usbd_core.c ****   USBD_StatusTypeDef ret = USBD_OK;
 442              		.loc 1 514 3 is_stmt 1 view .LVU115
 443              	.LVL31:
 515:STM32F411/Middlewares/ST/STM32_USB_Device_Library/Core/Src/usbd_core.c **** 
 516:STM32F411/Middlewares/ST/STM32_USB_Device_Library/Core/Src/usbd_core.c **** #ifdef USE_USBD_COMPOSITE
 517:STM32F411/Middlewares/ST/STM32_USB_Device_Library/Core/Src/usbd_core.c ****   /* Parse the table of classes in use */
 518:STM32F411/Middlewares/ST/STM32_USB_Device_Library/Core/Src/usbd_core.c ****   for (uint32_t i = 0U; i < USBD_MAX_SUPPORTED_CLASS; i++)
 519:STM32F411/Middlewares/ST/STM32_USB_Device_Library/Core/Src/usbd_core.c ****   {
 520:STM32F411/Middlewares/ST/STM32_USB_Device_Library/Core/Src/usbd_core.c ****     /* Check if current class is in use */
 521:STM32F411/Middlewares/ST/STM32_USB_Device_Library/Core/Src/usbd_core.c ****     if ((pdev->tclasslist[i].Active) == 1U)
 522:STM32F411/Middlewares/ST/STM32_USB_Device_Library/Core/Src/usbd_core.c ****     {
 523:STM32F411/Middlewares/ST/STM32_USB_Device_Library/Core/Src/usbd_core.c ****       if (pdev->pClass[i] != NULL)
 524:STM32F411/Middlewares/ST/STM32_USB_Device_Library/Core/Src/usbd_core.c ****       {
ARM GAS  /tmp/cc9vlpLu.s 			page 18


 525:STM32F411/Middlewares/ST/STM32_USB_Device_Library/Core/Src/usbd_core.c ****         pdev->classId = i;
 526:STM32F411/Middlewares/ST/STM32_USB_Device_Library/Core/Src/usbd_core.c ****         /* Clear configuration  and De-initialize the Class process */
 527:STM32F411/Middlewares/ST/STM32_USB_Device_Library/Core/Src/usbd_core.c ****         if (pdev->pClass[i]->DeInit(pdev, cfgidx) != 0U)
 528:STM32F411/Middlewares/ST/STM32_USB_Device_Library/Core/Src/usbd_core.c ****         {
 529:STM32F411/Middlewares/ST/STM32_USB_Device_Library/Core/Src/usbd_core.c ****           ret = USBD_FAIL;
 530:STM32F411/Middlewares/ST/STM32_USB_Device_Library/Core/Src/usbd_core.c ****         }
 531:STM32F411/Middlewares/ST/STM32_USB_Device_Library/Core/Src/usbd_core.c ****       }
 532:STM32F411/Middlewares/ST/STM32_USB_Device_Library/Core/Src/usbd_core.c ****     }
 533:STM32F411/Middlewares/ST/STM32_USB_Device_Library/Core/Src/usbd_core.c ****   }
 534:STM32F411/Middlewares/ST/STM32_USB_Device_Library/Core/Src/usbd_core.c **** #else
 535:STM32F411/Middlewares/ST/STM32_USB_Device_Library/Core/Src/usbd_core.c ****   /* Clear configuration  and De-initialize the Class process */
 536:STM32F411/Middlewares/ST/STM32_USB_Device_Library/Core/Src/usbd_core.c ****   if (pdev->pClass[0]->DeInit(pdev, cfgidx) != 0U)
 444              		.loc 1 536 3 view .LVU116
 445              		.loc 1 536 19 is_stmt 0 view .LVU117
 446 0002 D0F8B832 		ldr	r3, [r0, #696]
 447              		.loc 1 536 22 view .LVU118
 448 0006 5B68     		ldr	r3, [r3, #4]
 449              		.loc 1 536 7 view .LVU119
 450 0008 9847     		blx	r3
 451              	.LVL32:
 452              		.loc 1 536 6 discriminator 1 view .LVU120
 453 000a 00B9     		cbnz	r0, .L31
 454              	.L28:
 455              	.LVL33:
 537:STM32F411/Middlewares/ST/STM32_USB_Device_Library/Core/Src/usbd_core.c ****   {
 538:STM32F411/Middlewares/ST/STM32_USB_Device_Library/Core/Src/usbd_core.c ****     ret = USBD_FAIL;
 539:STM32F411/Middlewares/ST/STM32_USB_Device_Library/Core/Src/usbd_core.c ****   }
 540:STM32F411/Middlewares/ST/STM32_USB_Device_Library/Core/Src/usbd_core.c **** #endif /* USE_USBD_COMPOSITE */
 541:STM32F411/Middlewares/ST/STM32_USB_Device_Library/Core/Src/usbd_core.c **** 
 542:STM32F411/Middlewares/ST/STM32_USB_Device_Library/Core/Src/usbd_core.c ****   return ret;
 456              		.loc 1 542 3 is_stmt 1 view .LVU121
 543:STM32F411/Middlewares/ST/STM32_USB_Device_Library/Core/Src/usbd_core.c **** }
 457              		.loc 1 543 1 is_stmt 0 view .LVU122
 458 000c 08BD     		pop	{r3, pc}
 459              	.LVL34:
 460              	.L31:
 538:STM32F411/Middlewares/ST/STM32_USB_Device_Library/Core/Src/usbd_core.c ****   }
 461              		.loc 1 538 9 view .LVU123
 462 000e 0320     		movs	r0, #3
 463 0010 FCE7     		b	.L28
 464              		.cfi_endproc
 465              	.LFE145:
 467              		.section	.text.USBD_LL_SetupStage,"ax",%progbits
 468              		.align	1
 469              		.global	USBD_LL_SetupStage
 470              		.syntax unified
 471              		.thumb
 472              		.thumb_func
 474              	USBD_LL_SetupStage:
 475              	.LVL35:
 476              	.LFB146:
 544:STM32F411/Middlewares/ST/STM32_USB_Device_Library/Core/Src/usbd_core.c **** 
 545:STM32F411/Middlewares/ST/STM32_USB_Device_Library/Core/Src/usbd_core.c **** 
 546:STM32F411/Middlewares/ST/STM32_USB_Device_Library/Core/Src/usbd_core.c **** /**
 547:STM32F411/Middlewares/ST/STM32_USB_Device_Library/Core/Src/usbd_core.c ****   * @brief  USBD_LL_SetupStage
 548:STM32F411/Middlewares/ST/STM32_USB_Device_Library/Core/Src/usbd_core.c ****   *         Handle the setup stage
 549:STM32F411/Middlewares/ST/STM32_USB_Device_Library/Core/Src/usbd_core.c ****   * @param  pdev: device instance
ARM GAS  /tmp/cc9vlpLu.s 			page 19


 550:STM32F411/Middlewares/ST/STM32_USB_Device_Library/Core/Src/usbd_core.c ****   * @retval status
 551:STM32F411/Middlewares/ST/STM32_USB_Device_Library/Core/Src/usbd_core.c ****   */
 552:STM32F411/Middlewares/ST/STM32_USB_Device_Library/Core/Src/usbd_core.c **** USBD_StatusTypeDef USBD_LL_SetupStage(USBD_HandleTypeDef *pdev, uint8_t *psetup)
 553:STM32F411/Middlewares/ST/STM32_USB_Device_Library/Core/Src/usbd_core.c **** {
 477              		.loc 1 553 1 is_stmt 1 view -0
 478              		.cfi_startproc
 479              		@ args = 0, pretend = 0, frame = 0
 480              		@ frame_needed = 0, uses_anonymous_args = 0
 481              		.loc 1 553 1 is_stmt 0 view .LVU125
 482 0000 38B5     		push	{r3, r4, r5, lr}
 483              	.LCFI10:
 484              		.cfi_def_cfa_offset 16
 485              		.cfi_offset 3, -16
 486              		.cfi_offset 4, -12
 487              		.cfi_offset 5, -8
 488              		.cfi_offset 14, -4
 489 0002 0446     		mov	r4, r0
 554:STM32F411/Middlewares/ST/STM32_USB_Device_Library/Core/Src/usbd_core.c ****   USBD_StatusTypeDef ret;
 490              		.loc 1 554 3 is_stmt 1 view .LVU126
 555:STM32F411/Middlewares/ST/STM32_USB_Device_Library/Core/Src/usbd_core.c **** 
 556:STM32F411/Middlewares/ST/STM32_USB_Device_Library/Core/Src/usbd_core.c ****   USBD_ParseSetupRequest(&pdev->request, psetup);
 491              		.loc 1 556 3 view .LVU127
 492 0004 00F2AA25 		addw	r5, r0, #682
 493 0008 2846     		mov	r0, r5
 494              	.LVL36:
 495              		.loc 1 556 3 is_stmt 0 view .LVU128
 496 000a FFF7FEFF 		bl	USBD_ParseSetupRequest
 497              	.LVL37:
 557:STM32F411/Middlewares/ST/STM32_USB_Device_Library/Core/Src/usbd_core.c **** 
 558:STM32F411/Middlewares/ST/STM32_USB_Device_Library/Core/Src/usbd_core.c ****   pdev->ep0_state = USBD_EP0_SETUP;
 498              		.loc 1 558 3 is_stmt 1 view .LVU129
 499              		.loc 1 558 19 is_stmt 0 view .LVU130
 500 000e 0123     		movs	r3, #1
 501 0010 C4F89432 		str	r3, [r4, #660]
 559:STM32F411/Middlewares/ST/STM32_USB_Device_Library/Core/Src/usbd_core.c **** 
 560:STM32F411/Middlewares/ST/STM32_USB_Device_Library/Core/Src/usbd_core.c ****   pdev->ep0_data_len = pdev->request.wLength;
 502              		.loc 1 560 3 is_stmt 1 view .LVU131
 503              		.loc 1 560 37 is_stmt 0 view .LVU132
 504 0014 B4F8B032 		ldrh	r3, [r4, #688]
 505              		.loc 1 560 22 view .LVU133
 506 0018 C4F89832 		str	r3, [r4, #664]
 561:STM32F411/Middlewares/ST/STM32_USB_Device_Library/Core/Src/usbd_core.c **** 
 562:STM32F411/Middlewares/ST/STM32_USB_Device_Library/Core/Src/usbd_core.c ****   switch (pdev->request.bmRequest & 0x1FU)
 507              		.loc 1 562 3 is_stmt 1 view .LVU134
 508              		.loc 1 562 24 is_stmt 0 view .LVU135
 509 001c 94F8AA12 		ldrb	r1, [r4, #682]	@ zero_extendqisi2
 510 0020 01F01F03 		and	r3, r1, #31
 511              		.loc 1 562 3 view .LVU136
 512 0024 012B     		cmp	r3, #1
 513 0026 07D0     		beq	.L33
 514 0028 022B     		cmp	r3, #2
 515 002a 0AD0     		beq	.L34
 516 002c 73B9     		cbnz	r3, .L35
 563:STM32F411/Middlewares/ST/STM32_USB_Device_Library/Core/Src/usbd_core.c ****   {
 564:STM32F411/Middlewares/ST/STM32_USB_Device_Library/Core/Src/usbd_core.c ****     case USB_REQ_RECIPIENT_DEVICE:
 565:STM32F411/Middlewares/ST/STM32_USB_Device_Library/Core/Src/usbd_core.c ****       ret = USBD_StdDevReq(pdev, &pdev->request);
 517              		.loc 1 565 7 is_stmt 1 view .LVU137
ARM GAS  /tmp/cc9vlpLu.s 			page 20


 518              		.loc 1 565 13 is_stmt 0 view .LVU138
 519 002e 2946     		mov	r1, r5
 520 0030 2046     		mov	r0, r4
 521 0032 FFF7FEFF 		bl	USBD_StdDevReq
 522              	.LVL38:
 566:STM32F411/Middlewares/ST/STM32_USB_Device_Library/Core/Src/usbd_core.c ****       break;
 523              		.loc 1 566 7 is_stmt 1 view .LVU139
 524              	.L36:
 567:STM32F411/Middlewares/ST/STM32_USB_Device_Library/Core/Src/usbd_core.c **** 
 568:STM32F411/Middlewares/ST/STM32_USB_Device_Library/Core/Src/usbd_core.c ****     case USB_REQ_RECIPIENT_INTERFACE:
 569:STM32F411/Middlewares/ST/STM32_USB_Device_Library/Core/Src/usbd_core.c ****       ret = USBD_StdItfReq(pdev, &pdev->request);
 570:STM32F411/Middlewares/ST/STM32_USB_Device_Library/Core/Src/usbd_core.c ****       break;
 571:STM32F411/Middlewares/ST/STM32_USB_Device_Library/Core/Src/usbd_core.c **** 
 572:STM32F411/Middlewares/ST/STM32_USB_Device_Library/Core/Src/usbd_core.c ****     case USB_REQ_RECIPIENT_ENDPOINT:
 573:STM32F411/Middlewares/ST/STM32_USB_Device_Library/Core/Src/usbd_core.c ****       ret = USBD_StdEPReq(pdev, &pdev->request);
 574:STM32F411/Middlewares/ST/STM32_USB_Device_Library/Core/Src/usbd_core.c ****       break;
 575:STM32F411/Middlewares/ST/STM32_USB_Device_Library/Core/Src/usbd_core.c **** 
 576:STM32F411/Middlewares/ST/STM32_USB_Device_Library/Core/Src/usbd_core.c ****     default:
 577:STM32F411/Middlewares/ST/STM32_USB_Device_Library/Core/Src/usbd_core.c ****       ret = USBD_LL_StallEP(pdev, (pdev->request.bmRequest & 0x80U));
 578:STM32F411/Middlewares/ST/STM32_USB_Device_Library/Core/Src/usbd_core.c ****       break;
 579:STM32F411/Middlewares/ST/STM32_USB_Device_Library/Core/Src/usbd_core.c ****   }
 580:STM32F411/Middlewares/ST/STM32_USB_Device_Library/Core/Src/usbd_core.c **** 
 581:STM32F411/Middlewares/ST/STM32_USB_Device_Library/Core/Src/usbd_core.c ****   return ret;
 525              		.loc 1 581 3 view .LVU140
 582:STM32F411/Middlewares/ST/STM32_USB_Device_Library/Core/Src/usbd_core.c **** }
 526              		.loc 1 582 1 is_stmt 0 view .LVU141
 527 0036 38BD     		pop	{r3, r4, r5, pc}
 528              	.LVL39:
 529              	.L33:
 569:STM32F411/Middlewares/ST/STM32_USB_Device_Library/Core/Src/usbd_core.c ****       break;
 530              		.loc 1 569 7 is_stmt 1 view .LVU142
 569:STM32F411/Middlewares/ST/STM32_USB_Device_Library/Core/Src/usbd_core.c ****       break;
 531              		.loc 1 569 13 is_stmt 0 view .LVU143
 532 0038 2946     		mov	r1, r5
 533 003a 2046     		mov	r0, r4
 534 003c FFF7FEFF 		bl	USBD_StdItfReq
 535              	.LVL40:
 570:STM32F411/Middlewares/ST/STM32_USB_Device_Library/Core/Src/usbd_core.c **** 
 536              		.loc 1 570 7 is_stmt 1 view .LVU144
 537 0040 F9E7     		b	.L36
 538              	.LVL41:
 539              	.L34:
 573:STM32F411/Middlewares/ST/STM32_USB_Device_Library/Core/Src/usbd_core.c ****       break;
 540              		.loc 1 573 7 view .LVU145
 573:STM32F411/Middlewares/ST/STM32_USB_Device_Library/Core/Src/usbd_core.c ****       break;
 541              		.loc 1 573 13 is_stmt 0 view .LVU146
 542 0042 2946     		mov	r1, r5
 543 0044 2046     		mov	r0, r4
 544 0046 FFF7FEFF 		bl	USBD_StdEPReq
 545              	.LVL42:
 574:STM32F411/Middlewares/ST/STM32_USB_Device_Library/Core/Src/usbd_core.c **** 
 546              		.loc 1 574 7 is_stmt 1 view .LVU147
 547 004a F4E7     		b	.L36
 548              	.LVL43:
 549              	.L35:
 577:STM32F411/Middlewares/ST/STM32_USB_Device_Library/Core/Src/usbd_core.c ****       break;
 550              		.loc 1 577 7 view .LVU148
ARM GAS  /tmp/cc9vlpLu.s 			page 21


 577:STM32F411/Middlewares/ST/STM32_USB_Device_Library/Core/Src/usbd_core.c ****       break;
 551              		.loc 1 577 13 is_stmt 0 view .LVU149
 552 004c 01F08001 		and	r1, r1, #128
 553 0050 2046     		mov	r0, r4
 554 0052 FFF7FEFF 		bl	USBD_LL_StallEP
 555              	.LVL44:
 578:STM32F411/Middlewares/ST/STM32_USB_Device_Library/Core/Src/usbd_core.c ****   }
 556              		.loc 1 578 7 is_stmt 1 view .LVU150
 557 0056 EEE7     		b	.L36
 558              		.cfi_endproc
 559              	.LFE146:
 561              		.section	.text.USBD_LL_Reset,"ax",%progbits
 562              		.align	1
 563              		.global	USBD_LL_Reset
 564              		.syntax unified
 565              		.thumb
 566              		.thumb_func
 568              	USBD_LL_Reset:
 569              	.LVL45:
 570              	.LFB149:
 583:STM32F411/Middlewares/ST/STM32_USB_Device_Library/Core/Src/usbd_core.c **** 
 584:STM32F411/Middlewares/ST/STM32_USB_Device_Library/Core/Src/usbd_core.c **** /**
 585:STM32F411/Middlewares/ST/STM32_USB_Device_Library/Core/Src/usbd_core.c ****   * @brief  USBD_LL_DataOutStage
 586:STM32F411/Middlewares/ST/STM32_USB_Device_Library/Core/Src/usbd_core.c ****   *         Handle data OUT stage
 587:STM32F411/Middlewares/ST/STM32_USB_Device_Library/Core/Src/usbd_core.c ****   * @param  pdev: device instance
 588:STM32F411/Middlewares/ST/STM32_USB_Device_Library/Core/Src/usbd_core.c ****   * @param  epnum: endpoint index
 589:STM32F411/Middlewares/ST/STM32_USB_Device_Library/Core/Src/usbd_core.c ****   * @param  pdata: data pointer
 590:STM32F411/Middlewares/ST/STM32_USB_Device_Library/Core/Src/usbd_core.c ****   * @retval status
 591:STM32F411/Middlewares/ST/STM32_USB_Device_Library/Core/Src/usbd_core.c ****   */
 592:STM32F411/Middlewares/ST/STM32_USB_Device_Library/Core/Src/usbd_core.c **** USBD_StatusTypeDef USBD_LL_DataOutStage(USBD_HandleTypeDef *pdev,
 593:STM32F411/Middlewares/ST/STM32_USB_Device_Library/Core/Src/usbd_core.c ****                                         uint8_t epnum, uint8_t *pdata)
 594:STM32F411/Middlewares/ST/STM32_USB_Device_Library/Core/Src/usbd_core.c **** {
 595:STM32F411/Middlewares/ST/STM32_USB_Device_Library/Core/Src/usbd_core.c ****   USBD_EndpointTypeDef *pep;
 596:STM32F411/Middlewares/ST/STM32_USB_Device_Library/Core/Src/usbd_core.c ****   USBD_StatusTypeDef ret = USBD_OK;
 597:STM32F411/Middlewares/ST/STM32_USB_Device_Library/Core/Src/usbd_core.c ****   uint8_t idx;
 598:STM32F411/Middlewares/ST/STM32_USB_Device_Library/Core/Src/usbd_core.c **** 
 599:STM32F411/Middlewares/ST/STM32_USB_Device_Library/Core/Src/usbd_core.c ****   if (epnum == 0U)
 600:STM32F411/Middlewares/ST/STM32_USB_Device_Library/Core/Src/usbd_core.c ****   {
 601:STM32F411/Middlewares/ST/STM32_USB_Device_Library/Core/Src/usbd_core.c ****     pep = &pdev->ep_out[0];
 602:STM32F411/Middlewares/ST/STM32_USB_Device_Library/Core/Src/usbd_core.c **** 
 603:STM32F411/Middlewares/ST/STM32_USB_Device_Library/Core/Src/usbd_core.c ****     if (pdev->ep0_state == USBD_EP0_DATA_OUT)
 604:STM32F411/Middlewares/ST/STM32_USB_Device_Library/Core/Src/usbd_core.c ****     {
 605:STM32F411/Middlewares/ST/STM32_USB_Device_Library/Core/Src/usbd_core.c ****       if (pep->rem_length > pep->maxpacket)
 606:STM32F411/Middlewares/ST/STM32_USB_Device_Library/Core/Src/usbd_core.c ****       {
 607:STM32F411/Middlewares/ST/STM32_USB_Device_Library/Core/Src/usbd_core.c ****         pep->rem_length -= pep->maxpacket;
 608:STM32F411/Middlewares/ST/STM32_USB_Device_Library/Core/Src/usbd_core.c **** 
 609:STM32F411/Middlewares/ST/STM32_USB_Device_Library/Core/Src/usbd_core.c ****         (void)USBD_CtlContinueRx(pdev, pdata, MIN(pep->rem_length, pep->maxpacket));
 610:STM32F411/Middlewares/ST/STM32_USB_Device_Library/Core/Src/usbd_core.c ****       }
 611:STM32F411/Middlewares/ST/STM32_USB_Device_Library/Core/Src/usbd_core.c ****       else
 612:STM32F411/Middlewares/ST/STM32_USB_Device_Library/Core/Src/usbd_core.c ****       {
 613:STM32F411/Middlewares/ST/STM32_USB_Device_Library/Core/Src/usbd_core.c ****         /* Find the class ID relative to the current request */
 614:STM32F411/Middlewares/ST/STM32_USB_Device_Library/Core/Src/usbd_core.c ****         switch (pdev->request.bmRequest & 0x1FU)
 615:STM32F411/Middlewares/ST/STM32_USB_Device_Library/Core/Src/usbd_core.c ****         {
 616:STM32F411/Middlewares/ST/STM32_USB_Device_Library/Core/Src/usbd_core.c ****           case USB_REQ_RECIPIENT_DEVICE:
 617:STM32F411/Middlewares/ST/STM32_USB_Device_Library/Core/Src/usbd_core.c ****             /* Device requests must be managed by the first instantiated class
 618:STM32F411/Middlewares/ST/STM32_USB_Device_Library/Core/Src/usbd_core.c ****                (or duplicated by all classes for simplicity) */
 619:STM32F411/Middlewares/ST/STM32_USB_Device_Library/Core/Src/usbd_core.c ****             idx = 0U;
ARM GAS  /tmp/cc9vlpLu.s 			page 22


 620:STM32F411/Middlewares/ST/STM32_USB_Device_Library/Core/Src/usbd_core.c ****             break;
 621:STM32F411/Middlewares/ST/STM32_USB_Device_Library/Core/Src/usbd_core.c **** 
 622:STM32F411/Middlewares/ST/STM32_USB_Device_Library/Core/Src/usbd_core.c ****           case USB_REQ_RECIPIENT_INTERFACE:
 623:STM32F411/Middlewares/ST/STM32_USB_Device_Library/Core/Src/usbd_core.c ****             idx = USBD_CoreFindIF(pdev, LOBYTE(pdev->request.wIndex));
 624:STM32F411/Middlewares/ST/STM32_USB_Device_Library/Core/Src/usbd_core.c ****             break;
 625:STM32F411/Middlewares/ST/STM32_USB_Device_Library/Core/Src/usbd_core.c **** 
 626:STM32F411/Middlewares/ST/STM32_USB_Device_Library/Core/Src/usbd_core.c ****           case USB_REQ_RECIPIENT_ENDPOINT:
 627:STM32F411/Middlewares/ST/STM32_USB_Device_Library/Core/Src/usbd_core.c ****             idx = USBD_CoreFindEP(pdev, LOBYTE(pdev->request.wIndex));
 628:STM32F411/Middlewares/ST/STM32_USB_Device_Library/Core/Src/usbd_core.c ****             break;
 629:STM32F411/Middlewares/ST/STM32_USB_Device_Library/Core/Src/usbd_core.c **** 
 630:STM32F411/Middlewares/ST/STM32_USB_Device_Library/Core/Src/usbd_core.c ****           default:
 631:STM32F411/Middlewares/ST/STM32_USB_Device_Library/Core/Src/usbd_core.c ****             /* Back to the first class in case of doubt */
 632:STM32F411/Middlewares/ST/STM32_USB_Device_Library/Core/Src/usbd_core.c ****             idx = 0U;
 633:STM32F411/Middlewares/ST/STM32_USB_Device_Library/Core/Src/usbd_core.c ****             break;
 634:STM32F411/Middlewares/ST/STM32_USB_Device_Library/Core/Src/usbd_core.c ****         }
 635:STM32F411/Middlewares/ST/STM32_USB_Device_Library/Core/Src/usbd_core.c **** 
 636:STM32F411/Middlewares/ST/STM32_USB_Device_Library/Core/Src/usbd_core.c ****         if (idx < USBD_MAX_SUPPORTED_CLASS)
 637:STM32F411/Middlewares/ST/STM32_USB_Device_Library/Core/Src/usbd_core.c ****         {
 638:STM32F411/Middlewares/ST/STM32_USB_Device_Library/Core/Src/usbd_core.c ****           /* Setup the class ID and route the request to the relative class function */
 639:STM32F411/Middlewares/ST/STM32_USB_Device_Library/Core/Src/usbd_core.c ****           if (pdev->dev_state == USBD_STATE_CONFIGURED)
 640:STM32F411/Middlewares/ST/STM32_USB_Device_Library/Core/Src/usbd_core.c ****           {
 641:STM32F411/Middlewares/ST/STM32_USB_Device_Library/Core/Src/usbd_core.c ****             if (pdev->pClass[idx]->EP0_RxReady != NULL)
 642:STM32F411/Middlewares/ST/STM32_USB_Device_Library/Core/Src/usbd_core.c ****             {
 643:STM32F411/Middlewares/ST/STM32_USB_Device_Library/Core/Src/usbd_core.c ****               pdev->classId = idx;
 644:STM32F411/Middlewares/ST/STM32_USB_Device_Library/Core/Src/usbd_core.c ****               pdev->pClass[idx]->EP0_RxReady(pdev);
 645:STM32F411/Middlewares/ST/STM32_USB_Device_Library/Core/Src/usbd_core.c ****             }
 646:STM32F411/Middlewares/ST/STM32_USB_Device_Library/Core/Src/usbd_core.c ****           }
 647:STM32F411/Middlewares/ST/STM32_USB_Device_Library/Core/Src/usbd_core.c ****         }
 648:STM32F411/Middlewares/ST/STM32_USB_Device_Library/Core/Src/usbd_core.c **** 
 649:STM32F411/Middlewares/ST/STM32_USB_Device_Library/Core/Src/usbd_core.c ****         (void)USBD_CtlSendStatus(pdev);
 650:STM32F411/Middlewares/ST/STM32_USB_Device_Library/Core/Src/usbd_core.c ****       }
 651:STM32F411/Middlewares/ST/STM32_USB_Device_Library/Core/Src/usbd_core.c ****     }
 652:STM32F411/Middlewares/ST/STM32_USB_Device_Library/Core/Src/usbd_core.c ****   }
 653:STM32F411/Middlewares/ST/STM32_USB_Device_Library/Core/Src/usbd_core.c ****   else
 654:STM32F411/Middlewares/ST/STM32_USB_Device_Library/Core/Src/usbd_core.c ****   {
 655:STM32F411/Middlewares/ST/STM32_USB_Device_Library/Core/Src/usbd_core.c ****     /* Get the class index relative to this interface */
 656:STM32F411/Middlewares/ST/STM32_USB_Device_Library/Core/Src/usbd_core.c ****     idx = USBD_CoreFindEP(pdev, (epnum & 0x7FU));
 657:STM32F411/Middlewares/ST/STM32_USB_Device_Library/Core/Src/usbd_core.c **** 
 658:STM32F411/Middlewares/ST/STM32_USB_Device_Library/Core/Src/usbd_core.c ****     if (((uint16_t)idx != 0xFFU) && (idx < USBD_MAX_SUPPORTED_CLASS))
 659:STM32F411/Middlewares/ST/STM32_USB_Device_Library/Core/Src/usbd_core.c ****     {
 660:STM32F411/Middlewares/ST/STM32_USB_Device_Library/Core/Src/usbd_core.c ****       /* Call the class data out function to manage the request */
 661:STM32F411/Middlewares/ST/STM32_USB_Device_Library/Core/Src/usbd_core.c ****       if (pdev->dev_state == USBD_STATE_CONFIGURED)
 662:STM32F411/Middlewares/ST/STM32_USB_Device_Library/Core/Src/usbd_core.c ****       {
 663:STM32F411/Middlewares/ST/STM32_USB_Device_Library/Core/Src/usbd_core.c ****         if (pdev->pClass[idx]->DataOut != NULL)
 664:STM32F411/Middlewares/ST/STM32_USB_Device_Library/Core/Src/usbd_core.c ****         {
 665:STM32F411/Middlewares/ST/STM32_USB_Device_Library/Core/Src/usbd_core.c ****           pdev->classId = idx;
 666:STM32F411/Middlewares/ST/STM32_USB_Device_Library/Core/Src/usbd_core.c ****           ret = (USBD_StatusTypeDef)pdev->pClass[idx]->DataOut(pdev, epnum);
 667:STM32F411/Middlewares/ST/STM32_USB_Device_Library/Core/Src/usbd_core.c ****         }
 668:STM32F411/Middlewares/ST/STM32_USB_Device_Library/Core/Src/usbd_core.c ****       }
 669:STM32F411/Middlewares/ST/STM32_USB_Device_Library/Core/Src/usbd_core.c ****       if (ret != USBD_OK)
 670:STM32F411/Middlewares/ST/STM32_USB_Device_Library/Core/Src/usbd_core.c ****       {
 671:STM32F411/Middlewares/ST/STM32_USB_Device_Library/Core/Src/usbd_core.c ****         return ret;
 672:STM32F411/Middlewares/ST/STM32_USB_Device_Library/Core/Src/usbd_core.c ****       }
 673:STM32F411/Middlewares/ST/STM32_USB_Device_Library/Core/Src/usbd_core.c ****     }
 674:STM32F411/Middlewares/ST/STM32_USB_Device_Library/Core/Src/usbd_core.c ****   }
 675:STM32F411/Middlewares/ST/STM32_USB_Device_Library/Core/Src/usbd_core.c **** 
 676:STM32F411/Middlewares/ST/STM32_USB_Device_Library/Core/Src/usbd_core.c ****   return USBD_OK;
ARM GAS  /tmp/cc9vlpLu.s 			page 23


 677:STM32F411/Middlewares/ST/STM32_USB_Device_Library/Core/Src/usbd_core.c **** }
 678:STM32F411/Middlewares/ST/STM32_USB_Device_Library/Core/Src/usbd_core.c **** 
 679:STM32F411/Middlewares/ST/STM32_USB_Device_Library/Core/Src/usbd_core.c **** /**
 680:STM32F411/Middlewares/ST/STM32_USB_Device_Library/Core/Src/usbd_core.c ****   * @brief  USBD_LL_DataInStage
 681:STM32F411/Middlewares/ST/STM32_USB_Device_Library/Core/Src/usbd_core.c ****   *         Handle data in stage
 682:STM32F411/Middlewares/ST/STM32_USB_Device_Library/Core/Src/usbd_core.c ****   * @param  pdev: device instance
 683:STM32F411/Middlewares/ST/STM32_USB_Device_Library/Core/Src/usbd_core.c ****   * @param  epnum: endpoint index
 684:STM32F411/Middlewares/ST/STM32_USB_Device_Library/Core/Src/usbd_core.c ****   * @retval status
 685:STM32F411/Middlewares/ST/STM32_USB_Device_Library/Core/Src/usbd_core.c ****   */
 686:STM32F411/Middlewares/ST/STM32_USB_Device_Library/Core/Src/usbd_core.c **** USBD_StatusTypeDef USBD_LL_DataInStage(USBD_HandleTypeDef *pdev,
 687:STM32F411/Middlewares/ST/STM32_USB_Device_Library/Core/Src/usbd_core.c ****                                        uint8_t epnum, uint8_t *pdata)
 688:STM32F411/Middlewares/ST/STM32_USB_Device_Library/Core/Src/usbd_core.c **** {
 689:STM32F411/Middlewares/ST/STM32_USB_Device_Library/Core/Src/usbd_core.c ****   USBD_EndpointTypeDef *pep;
 690:STM32F411/Middlewares/ST/STM32_USB_Device_Library/Core/Src/usbd_core.c ****   USBD_StatusTypeDef ret;
 691:STM32F411/Middlewares/ST/STM32_USB_Device_Library/Core/Src/usbd_core.c ****   uint8_t idx;
 692:STM32F411/Middlewares/ST/STM32_USB_Device_Library/Core/Src/usbd_core.c **** 
 693:STM32F411/Middlewares/ST/STM32_USB_Device_Library/Core/Src/usbd_core.c ****   if (epnum == 0U)
 694:STM32F411/Middlewares/ST/STM32_USB_Device_Library/Core/Src/usbd_core.c ****   {
 695:STM32F411/Middlewares/ST/STM32_USB_Device_Library/Core/Src/usbd_core.c ****     pep = &pdev->ep_in[0];
 696:STM32F411/Middlewares/ST/STM32_USB_Device_Library/Core/Src/usbd_core.c **** 
 697:STM32F411/Middlewares/ST/STM32_USB_Device_Library/Core/Src/usbd_core.c ****     if (pdev->ep0_state == USBD_EP0_DATA_IN)
 698:STM32F411/Middlewares/ST/STM32_USB_Device_Library/Core/Src/usbd_core.c ****     {
 699:STM32F411/Middlewares/ST/STM32_USB_Device_Library/Core/Src/usbd_core.c ****       if (pep->rem_length > pep->maxpacket)
 700:STM32F411/Middlewares/ST/STM32_USB_Device_Library/Core/Src/usbd_core.c ****       {
 701:STM32F411/Middlewares/ST/STM32_USB_Device_Library/Core/Src/usbd_core.c ****         pep->rem_length -= pep->maxpacket;
 702:STM32F411/Middlewares/ST/STM32_USB_Device_Library/Core/Src/usbd_core.c **** 
 703:STM32F411/Middlewares/ST/STM32_USB_Device_Library/Core/Src/usbd_core.c ****         (void)USBD_CtlContinueSendData(pdev, pdata, pep->rem_length);
 704:STM32F411/Middlewares/ST/STM32_USB_Device_Library/Core/Src/usbd_core.c **** 
 705:STM32F411/Middlewares/ST/STM32_USB_Device_Library/Core/Src/usbd_core.c ****         /* Prepare endpoint for premature end of transfer */
 706:STM32F411/Middlewares/ST/STM32_USB_Device_Library/Core/Src/usbd_core.c ****         (void)USBD_LL_PrepareReceive(pdev, 0U, NULL, 0U);
 707:STM32F411/Middlewares/ST/STM32_USB_Device_Library/Core/Src/usbd_core.c ****       }
 708:STM32F411/Middlewares/ST/STM32_USB_Device_Library/Core/Src/usbd_core.c ****       else
 709:STM32F411/Middlewares/ST/STM32_USB_Device_Library/Core/Src/usbd_core.c ****       {
 710:STM32F411/Middlewares/ST/STM32_USB_Device_Library/Core/Src/usbd_core.c ****         /* last packet is MPS multiple, so send ZLP packet */
 711:STM32F411/Middlewares/ST/STM32_USB_Device_Library/Core/Src/usbd_core.c ****         if ((pep->maxpacket == pep->rem_length) &&
 712:STM32F411/Middlewares/ST/STM32_USB_Device_Library/Core/Src/usbd_core.c ****             (pep->total_length >= pep->maxpacket) &&
 713:STM32F411/Middlewares/ST/STM32_USB_Device_Library/Core/Src/usbd_core.c ****             (pep->total_length < pdev->ep0_data_len))
 714:STM32F411/Middlewares/ST/STM32_USB_Device_Library/Core/Src/usbd_core.c ****         {
 715:STM32F411/Middlewares/ST/STM32_USB_Device_Library/Core/Src/usbd_core.c ****           (void)USBD_CtlContinueSendData(pdev, NULL, 0U);
 716:STM32F411/Middlewares/ST/STM32_USB_Device_Library/Core/Src/usbd_core.c ****           pdev->ep0_data_len = 0U;
 717:STM32F411/Middlewares/ST/STM32_USB_Device_Library/Core/Src/usbd_core.c **** 
 718:STM32F411/Middlewares/ST/STM32_USB_Device_Library/Core/Src/usbd_core.c ****           /* Prepare endpoint for premature end of transfer */
 719:STM32F411/Middlewares/ST/STM32_USB_Device_Library/Core/Src/usbd_core.c ****           (void)USBD_LL_PrepareReceive(pdev, 0U, NULL, 0U);
 720:STM32F411/Middlewares/ST/STM32_USB_Device_Library/Core/Src/usbd_core.c ****         }
 721:STM32F411/Middlewares/ST/STM32_USB_Device_Library/Core/Src/usbd_core.c ****         else
 722:STM32F411/Middlewares/ST/STM32_USB_Device_Library/Core/Src/usbd_core.c ****         {
 723:STM32F411/Middlewares/ST/STM32_USB_Device_Library/Core/Src/usbd_core.c ****           if (pdev->dev_state == USBD_STATE_CONFIGURED)
 724:STM32F411/Middlewares/ST/STM32_USB_Device_Library/Core/Src/usbd_core.c ****           {
 725:STM32F411/Middlewares/ST/STM32_USB_Device_Library/Core/Src/usbd_core.c ****             if (pdev->pClass[0]->EP0_TxSent != NULL)
 726:STM32F411/Middlewares/ST/STM32_USB_Device_Library/Core/Src/usbd_core.c ****             {
 727:STM32F411/Middlewares/ST/STM32_USB_Device_Library/Core/Src/usbd_core.c ****               pdev->classId = 0U;
 728:STM32F411/Middlewares/ST/STM32_USB_Device_Library/Core/Src/usbd_core.c ****               pdev->pClass[0]->EP0_TxSent(pdev);
 729:STM32F411/Middlewares/ST/STM32_USB_Device_Library/Core/Src/usbd_core.c ****             }
 730:STM32F411/Middlewares/ST/STM32_USB_Device_Library/Core/Src/usbd_core.c ****           }
 731:STM32F411/Middlewares/ST/STM32_USB_Device_Library/Core/Src/usbd_core.c ****           (void)USBD_LL_StallEP(pdev, 0x80U);
 732:STM32F411/Middlewares/ST/STM32_USB_Device_Library/Core/Src/usbd_core.c ****           (void)USBD_CtlReceiveStatus(pdev);
 733:STM32F411/Middlewares/ST/STM32_USB_Device_Library/Core/Src/usbd_core.c ****         }
ARM GAS  /tmp/cc9vlpLu.s 			page 24


 734:STM32F411/Middlewares/ST/STM32_USB_Device_Library/Core/Src/usbd_core.c ****       }
 735:STM32F411/Middlewares/ST/STM32_USB_Device_Library/Core/Src/usbd_core.c ****     }
 736:STM32F411/Middlewares/ST/STM32_USB_Device_Library/Core/Src/usbd_core.c **** 
 737:STM32F411/Middlewares/ST/STM32_USB_Device_Library/Core/Src/usbd_core.c ****     if (pdev->dev_test_mode != 0U)
 738:STM32F411/Middlewares/ST/STM32_USB_Device_Library/Core/Src/usbd_core.c ****     {
 739:STM32F411/Middlewares/ST/STM32_USB_Device_Library/Core/Src/usbd_core.c ****       (void)USBD_RunTestMode(pdev);
 740:STM32F411/Middlewares/ST/STM32_USB_Device_Library/Core/Src/usbd_core.c ****       pdev->dev_test_mode = 0U;
 741:STM32F411/Middlewares/ST/STM32_USB_Device_Library/Core/Src/usbd_core.c ****     }
 742:STM32F411/Middlewares/ST/STM32_USB_Device_Library/Core/Src/usbd_core.c ****   }
 743:STM32F411/Middlewares/ST/STM32_USB_Device_Library/Core/Src/usbd_core.c ****   else
 744:STM32F411/Middlewares/ST/STM32_USB_Device_Library/Core/Src/usbd_core.c ****   {
 745:STM32F411/Middlewares/ST/STM32_USB_Device_Library/Core/Src/usbd_core.c ****     /* Get the class index relative to this interface */
 746:STM32F411/Middlewares/ST/STM32_USB_Device_Library/Core/Src/usbd_core.c ****     idx = USBD_CoreFindEP(pdev, ((uint8_t)epnum | 0x80U));
 747:STM32F411/Middlewares/ST/STM32_USB_Device_Library/Core/Src/usbd_core.c **** 
 748:STM32F411/Middlewares/ST/STM32_USB_Device_Library/Core/Src/usbd_core.c ****     if (((uint16_t)idx != 0xFFU) && (idx < USBD_MAX_SUPPORTED_CLASS))
 749:STM32F411/Middlewares/ST/STM32_USB_Device_Library/Core/Src/usbd_core.c ****     {
 750:STM32F411/Middlewares/ST/STM32_USB_Device_Library/Core/Src/usbd_core.c ****       /* Call the class data out function to manage the request */
 751:STM32F411/Middlewares/ST/STM32_USB_Device_Library/Core/Src/usbd_core.c ****       if (pdev->dev_state == USBD_STATE_CONFIGURED)
 752:STM32F411/Middlewares/ST/STM32_USB_Device_Library/Core/Src/usbd_core.c ****       {
 753:STM32F411/Middlewares/ST/STM32_USB_Device_Library/Core/Src/usbd_core.c ****         if (pdev->pClass[idx]->DataIn != NULL)
 754:STM32F411/Middlewares/ST/STM32_USB_Device_Library/Core/Src/usbd_core.c ****         {
 755:STM32F411/Middlewares/ST/STM32_USB_Device_Library/Core/Src/usbd_core.c ****           pdev->classId = idx;
 756:STM32F411/Middlewares/ST/STM32_USB_Device_Library/Core/Src/usbd_core.c ****           ret = (USBD_StatusTypeDef)pdev->pClass[idx]->DataIn(pdev, epnum);
 757:STM32F411/Middlewares/ST/STM32_USB_Device_Library/Core/Src/usbd_core.c **** 
 758:STM32F411/Middlewares/ST/STM32_USB_Device_Library/Core/Src/usbd_core.c ****           if (ret != USBD_OK)
 759:STM32F411/Middlewares/ST/STM32_USB_Device_Library/Core/Src/usbd_core.c ****           {
 760:STM32F411/Middlewares/ST/STM32_USB_Device_Library/Core/Src/usbd_core.c ****             return ret;
 761:STM32F411/Middlewares/ST/STM32_USB_Device_Library/Core/Src/usbd_core.c ****           }
 762:STM32F411/Middlewares/ST/STM32_USB_Device_Library/Core/Src/usbd_core.c ****         }
 763:STM32F411/Middlewares/ST/STM32_USB_Device_Library/Core/Src/usbd_core.c ****       }
 764:STM32F411/Middlewares/ST/STM32_USB_Device_Library/Core/Src/usbd_core.c ****     }
 765:STM32F411/Middlewares/ST/STM32_USB_Device_Library/Core/Src/usbd_core.c ****   }
 766:STM32F411/Middlewares/ST/STM32_USB_Device_Library/Core/Src/usbd_core.c **** 
 767:STM32F411/Middlewares/ST/STM32_USB_Device_Library/Core/Src/usbd_core.c ****   return USBD_OK;
 768:STM32F411/Middlewares/ST/STM32_USB_Device_Library/Core/Src/usbd_core.c **** }
 769:STM32F411/Middlewares/ST/STM32_USB_Device_Library/Core/Src/usbd_core.c **** 
 770:STM32F411/Middlewares/ST/STM32_USB_Device_Library/Core/Src/usbd_core.c **** /**
 771:STM32F411/Middlewares/ST/STM32_USB_Device_Library/Core/Src/usbd_core.c ****   * @brief  USBD_LL_Reset
 772:STM32F411/Middlewares/ST/STM32_USB_Device_Library/Core/Src/usbd_core.c ****   *         Handle Reset event
 773:STM32F411/Middlewares/ST/STM32_USB_Device_Library/Core/Src/usbd_core.c ****   * @param  pdev: device instance
 774:STM32F411/Middlewares/ST/STM32_USB_Device_Library/Core/Src/usbd_core.c ****   * @retval status
 775:STM32F411/Middlewares/ST/STM32_USB_Device_Library/Core/Src/usbd_core.c ****   */
 776:STM32F411/Middlewares/ST/STM32_USB_Device_Library/Core/Src/usbd_core.c **** 
 777:STM32F411/Middlewares/ST/STM32_USB_Device_Library/Core/Src/usbd_core.c **** USBD_StatusTypeDef USBD_LL_Reset(USBD_HandleTypeDef *pdev)
 778:STM32F411/Middlewares/ST/STM32_USB_Device_Library/Core/Src/usbd_core.c **** {
 571              		.loc 1 778 1 view -0
 572              		.cfi_startproc
 573              		@ args = 0, pretend = 0, frame = 0
 574              		@ frame_needed = 0, uses_anonymous_args = 0
 575              		.loc 1 778 1 is_stmt 0 view .LVU152
 576 0000 F8B5     		push	{r3, r4, r5, r6, r7, lr}
 577              	.LCFI11:
 578              		.cfi_def_cfa_offset 24
 579              		.cfi_offset 3, -24
 580              		.cfi_offset 4, -20
 581              		.cfi_offset 5, -16
 582              		.cfi_offset 6, -12
ARM GAS  /tmp/cc9vlpLu.s 			page 25


 583              		.cfi_offset 7, -8
 584              		.cfi_offset 14, -4
 585 0002 0446     		mov	r4, r0
 779:STM32F411/Middlewares/ST/STM32_USB_Device_Library/Core/Src/usbd_core.c ****   USBD_StatusTypeDef ret = USBD_OK;
 586              		.loc 1 779 3 is_stmt 1 view .LVU153
 587              	.LVL46:
 780:STM32F411/Middlewares/ST/STM32_USB_Device_Library/Core/Src/usbd_core.c **** 
 781:STM32F411/Middlewares/ST/STM32_USB_Device_Library/Core/Src/usbd_core.c ****   /* Upon Reset call user call back */
 782:STM32F411/Middlewares/ST/STM32_USB_Device_Library/Core/Src/usbd_core.c ****   pdev->dev_state = USBD_STATE_DEFAULT;
 588              		.loc 1 782 3 view .LVU154
 589              		.loc 1 782 19 is_stmt 0 view .LVU155
 590 0004 0123     		movs	r3, #1
 591 0006 80F89C32 		strb	r3, [r0, #668]
 783:STM32F411/Middlewares/ST/STM32_USB_Device_Library/Core/Src/usbd_core.c ****   pdev->ep0_state = USBD_EP0_IDLE;
 592              		.loc 1 783 3 is_stmt 1 view .LVU156
 593              		.loc 1 783 19 is_stmt 0 view .LVU157
 594 000a 0023     		movs	r3, #0
 595 000c C0F89432 		str	r3, [r0, #660]
 784:STM32F411/Middlewares/ST/STM32_USB_Device_Library/Core/Src/usbd_core.c ****   pdev->dev_config = 0U;
 596              		.loc 1 784 3 is_stmt 1 view .LVU158
 597              		.loc 1 784 20 is_stmt 0 view .LVU159
 598 0010 4360     		str	r3, [r0, #4]
 785:STM32F411/Middlewares/ST/STM32_USB_Device_Library/Core/Src/usbd_core.c ****   pdev->dev_remote_wakeup = 0U;
 599              		.loc 1 785 3 is_stmt 1 view .LVU160
 600              		.loc 1 785 27 is_stmt 0 view .LVU161
 601 0012 C0F8A432 		str	r3, [r0, #676]
 786:STM32F411/Middlewares/ST/STM32_USB_Device_Library/Core/Src/usbd_core.c ****   pdev->dev_test_mode = 0U;
 602              		.loc 1 786 3 is_stmt 1 view .LVU162
 603              		.loc 1 786 23 is_stmt 0 view .LVU163
 604 0016 80F8A032 		strb	r3, [r0, #672]
 787:STM32F411/Middlewares/ST/STM32_USB_Device_Library/Core/Src/usbd_core.c **** 
 788:STM32F411/Middlewares/ST/STM32_USB_Device_Library/Core/Src/usbd_core.c **** #ifdef USE_USBD_COMPOSITE
 789:STM32F411/Middlewares/ST/STM32_USB_Device_Library/Core/Src/usbd_core.c ****   /* Parse the table of classes in use */
 790:STM32F411/Middlewares/ST/STM32_USB_Device_Library/Core/Src/usbd_core.c ****   for (uint32_t i = 0U; i < USBD_MAX_SUPPORTED_CLASS; i++)
 791:STM32F411/Middlewares/ST/STM32_USB_Device_Library/Core/Src/usbd_core.c ****   {
 792:STM32F411/Middlewares/ST/STM32_USB_Device_Library/Core/Src/usbd_core.c ****     /* Check if current class is in use */
 793:STM32F411/Middlewares/ST/STM32_USB_Device_Library/Core/Src/usbd_core.c ****     if ((pdev->tclasslist[i].Active) == 1U)
 794:STM32F411/Middlewares/ST/STM32_USB_Device_Library/Core/Src/usbd_core.c ****     {
 795:STM32F411/Middlewares/ST/STM32_USB_Device_Library/Core/Src/usbd_core.c ****       if (pdev->pClass[i] != NULL)
 796:STM32F411/Middlewares/ST/STM32_USB_Device_Library/Core/Src/usbd_core.c ****       {
 797:STM32F411/Middlewares/ST/STM32_USB_Device_Library/Core/Src/usbd_core.c ****         pdev->classId = i;
 798:STM32F411/Middlewares/ST/STM32_USB_Device_Library/Core/Src/usbd_core.c ****         /* Clear configuration  and De-initialize the Class process*/
 799:STM32F411/Middlewares/ST/STM32_USB_Device_Library/Core/Src/usbd_core.c **** 
 800:STM32F411/Middlewares/ST/STM32_USB_Device_Library/Core/Src/usbd_core.c ****         if (pdev->pClass[i]->DeInit != NULL)
 801:STM32F411/Middlewares/ST/STM32_USB_Device_Library/Core/Src/usbd_core.c ****         {
 802:STM32F411/Middlewares/ST/STM32_USB_Device_Library/Core/Src/usbd_core.c ****           if (pdev->pClass[i]->DeInit(pdev, (uint8_t)pdev->dev_config) != USBD_OK)
 803:STM32F411/Middlewares/ST/STM32_USB_Device_Library/Core/Src/usbd_core.c ****           {
 804:STM32F411/Middlewares/ST/STM32_USB_Device_Library/Core/Src/usbd_core.c ****             ret = USBD_FAIL;
 805:STM32F411/Middlewares/ST/STM32_USB_Device_Library/Core/Src/usbd_core.c ****           }
 806:STM32F411/Middlewares/ST/STM32_USB_Device_Library/Core/Src/usbd_core.c ****         }
 807:STM32F411/Middlewares/ST/STM32_USB_Device_Library/Core/Src/usbd_core.c ****       }
 808:STM32F411/Middlewares/ST/STM32_USB_Device_Library/Core/Src/usbd_core.c ****     }
 809:STM32F411/Middlewares/ST/STM32_USB_Device_Library/Core/Src/usbd_core.c ****   }
 810:STM32F411/Middlewares/ST/STM32_USB_Device_Library/Core/Src/usbd_core.c **** #else
 811:STM32F411/Middlewares/ST/STM32_USB_Device_Library/Core/Src/usbd_core.c **** 
 812:STM32F411/Middlewares/ST/STM32_USB_Device_Library/Core/Src/usbd_core.c ****   if (pdev->pClass[0] != NULL)
 605              		.loc 1 812 3 is_stmt 1 view .LVU164
ARM GAS  /tmp/cc9vlpLu.s 			page 26


 606              		.loc 1 812 19 is_stmt 0 view .LVU165
 607 001a D0F8B832 		ldr	r3, [r0, #696]
 608              		.loc 1 812 6 view .LVU166
 609 001e DBB1     		cbz	r3, .L40
 813:STM32F411/Middlewares/ST/STM32_USB_Device_Library/Core/Src/usbd_core.c ****   {
 814:STM32F411/Middlewares/ST/STM32_USB_Device_Library/Core/Src/usbd_core.c ****     if (pdev->pClass[0]->DeInit != NULL)
 610              		.loc 1 814 5 is_stmt 1 view .LVU167
 611              		.loc 1 814 24 is_stmt 0 view .LVU168
 612 0020 5B68     		ldr	r3, [r3, #4]
 613              		.loc 1 814 8 view .LVU169
 614 0022 DBB1     		cbz	r3, .L41
 815:STM32F411/Middlewares/ST/STM32_USB_Device_Library/Core/Src/usbd_core.c ****     {
 816:STM32F411/Middlewares/ST/STM32_USB_Device_Library/Core/Src/usbd_core.c ****       if (pdev->pClass[0]->DeInit(pdev, (uint8_t)pdev->dev_config) != USBD_OK)
 615              		.loc 1 816 7 is_stmt 1 view .LVU170
 616              		.loc 1 816 11 is_stmt 0 view .LVU171
 617 0024 0021     		movs	r1, #0
 618 0026 9847     		blx	r3
 619              	.LVL47:
 620              		.loc 1 816 10 discriminator 1 view .LVU172
 621 0028 0746     		mov	r7, r0
 622 002a C8B9     		cbnz	r0, .L44
 623              	.L39:
 624              	.LVL48:
 817:STM32F411/Middlewares/ST/STM32_USB_Device_Library/Core/Src/usbd_core.c ****       {
 818:STM32F411/Middlewares/ST/STM32_USB_Device_Library/Core/Src/usbd_core.c ****         ret = USBD_FAIL;
 819:STM32F411/Middlewares/ST/STM32_USB_Device_Library/Core/Src/usbd_core.c ****       }
 820:STM32F411/Middlewares/ST/STM32_USB_Device_Library/Core/Src/usbd_core.c ****     }
 821:STM32F411/Middlewares/ST/STM32_USB_Device_Library/Core/Src/usbd_core.c ****   }
 822:STM32F411/Middlewares/ST/STM32_USB_Device_Library/Core/Src/usbd_core.c **** #endif /* USE_USBD_COMPOSITE */
 823:STM32F411/Middlewares/ST/STM32_USB_Device_Library/Core/Src/usbd_core.c **** 
 824:STM32F411/Middlewares/ST/STM32_USB_Device_Library/Core/Src/usbd_core.c ****   /* Open EP0 OUT */
 825:STM32F411/Middlewares/ST/STM32_USB_Device_Library/Core/Src/usbd_core.c ****   (void)USBD_LL_OpenEP(pdev, 0x00U, USBD_EP_TYPE_CTRL, USB_MAX_EP0_SIZE);
 625              		.loc 1 825 3 is_stmt 1 view .LVU173
 626              		.loc 1 825 9 is_stmt 0 view .LVU174
 627 002c 4023     		movs	r3, #64
 628 002e 0022     		movs	r2, #0
 629 0030 1146     		mov	r1, r2
 630 0032 2046     		mov	r0, r4
 631 0034 FFF7FEFF 		bl	USBD_LL_OpenEP
 632              	.LVL49:
 826:STM32F411/Middlewares/ST/STM32_USB_Device_Library/Core/Src/usbd_core.c ****   pdev->ep_out[0x00U & 0xFU].is_used = 1U;
 633              		.loc 1 826 3 is_stmt 1 view .LVU175
 634              		.loc 1 826 38 is_stmt 0 view .LVU176
 635 0038 0126     		movs	r6, #1
 636 003a A4F86461 		strh	r6, [r4, #356]	@ movhi
 827:STM32F411/Middlewares/ST/STM32_USB_Device_Library/Core/Src/usbd_core.c **** 
 828:STM32F411/Middlewares/ST/STM32_USB_Device_Library/Core/Src/usbd_core.c ****   pdev->ep_out[0].maxpacket = USB_MAX_EP0_SIZE;
 637              		.loc 1 828 3 is_stmt 1 view .LVU177
 638              		.loc 1 828 29 is_stmt 0 view .LVU178
 639 003e 4025     		movs	r5, #64
 640 0040 C4F86051 		str	r5, [r4, #352]
 829:STM32F411/Middlewares/ST/STM32_USB_Device_Library/Core/Src/usbd_core.c **** 
 830:STM32F411/Middlewares/ST/STM32_USB_Device_Library/Core/Src/usbd_core.c ****   /* Open EP0 IN */
 831:STM32F411/Middlewares/ST/STM32_USB_Device_Library/Core/Src/usbd_core.c ****   (void)USBD_LL_OpenEP(pdev, 0x80U, USBD_EP_TYPE_CTRL, USB_MAX_EP0_SIZE);
 641              		.loc 1 831 3 is_stmt 1 view .LVU179
 642              		.loc 1 831 9 is_stmt 0 view .LVU180
 643 0044 2B46     		mov	r3, r5
ARM GAS  /tmp/cc9vlpLu.s 			page 27


 644 0046 0022     		movs	r2, #0
 645 0048 8021     		movs	r1, #128
 646 004a 2046     		mov	r0, r4
 647 004c FFF7FEFF 		bl	USBD_LL_OpenEP
 648              	.LVL50:
 832:STM32F411/Middlewares/ST/STM32_USB_Device_Library/Core/Src/usbd_core.c ****   pdev->ep_in[0x80U & 0xFU].is_used = 1U;
 649              		.loc 1 832 3 is_stmt 1 view .LVU181
 650              		.loc 1 832 37 is_stmt 0 view .LVU182
 651 0050 A684     		strh	r6, [r4, #36]	@ movhi
 833:STM32F411/Middlewares/ST/STM32_USB_Device_Library/Core/Src/usbd_core.c **** 
 834:STM32F411/Middlewares/ST/STM32_USB_Device_Library/Core/Src/usbd_core.c ****   pdev->ep_in[0].maxpacket = USB_MAX_EP0_SIZE;
 652              		.loc 1 834 3 is_stmt 1 view .LVU183
 653              		.loc 1 834 28 is_stmt 0 view .LVU184
 654 0052 2562     		str	r5, [r4, #32]
 835:STM32F411/Middlewares/ST/STM32_USB_Device_Library/Core/Src/usbd_core.c **** 
 836:STM32F411/Middlewares/ST/STM32_USB_Device_Library/Core/Src/usbd_core.c ****   return ret;
 655              		.loc 1 836 3 is_stmt 1 view .LVU185
 837:STM32F411/Middlewares/ST/STM32_USB_Device_Library/Core/Src/usbd_core.c **** }
 656              		.loc 1 837 1 is_stmt 0 view .LVU186
 657 0054 3846     		mov	r0, r7
 658 0056 F8BD     		pop	{r3, r4, r5, r6, r7, pc}
 659              	.LVL51:
 660              	.L40:
 779:STM32F411/Middlewares/ST/STM32_USB_Device_Library/Core/Src/usbd_core.c **** 
 661              		.loc 1 779 22 view .LVU187
 662 0058 0027     		movs	r7, #0
 663 005a E7E7     		b	.L39
 664              	.L41:
 665 005c 0027     		movs	r7, #0
 666 005e E5E7     		b	.L39
 667              	.LVL52:
 668              	.L44:
 818:STM32F411/Middlewares/ST/STM32_USB_Device_Library/Core/Src/usbd_core.c ****       }
 669              		.loc 1 818 13 view .LVU188
 670 0060 0327     		movs	r7, #3
 671 0062 E3E7     		b	.L39
 672              		.cfi_endproc
 673              	.LFE149:
 675              		.section	.text.USBD_LL_SetSpeed,"ax",%progbits
 676              		.align	1
 677              		.global	USBD_LL_SetSpeed
 678              		.syntax unified
 679              		.thumb
 680              		.thumb_func
 682              	USBD_LL_SetSpeed:
 683              	.LVL53:
 684              	.LFB150:
 838:STM32F411/Middlewares/ST/STM32_USB_Device_Library/Core/Src/usbd_core.c **** 
 839:STM32F411/Middlewares/ST/STM32_USB_Device_Library/Core/Src/usbd_core.c **** /**
 840:STM32F411/Middlewares/ST/STM32_USB_Device_Library/Core/Src/usbd_core.c ****   * @brief  USBD_LL_SetSpeed
 841:STM32F411/Middlewares/ST/STM32_USB_Device_Library/Core/Src/usbd_core.c ****   *         Handle Reset event
 842:STM32F411/Middlewares/ST/STM32_USB_Device_Library/Core/Src/usbd_core.c ****   * @param  pdev: device instance
 843:STM32F411/Middlewares/ST/STM32_USB_Device_Library/Core/Src/usbd_core.c ****   * @retval status
 844:STM32F411/Middlewares/ST/STM32_USB_Device_Library/Core/Src/usbd_core.c ****   */
 845:STM32F411/Middlewares/ST/STM32_USB_Device_Library/Core/Src/usbd_core.c **** USBD_StatusTypeDef USBD_LL_SetSpeed(USBD_HandleTypeDef *pdev,
 846:STM32F411/Middlewares/ST/STM32_USB_Device_Library/Core/Src/usbd_core.c ****                                     USBD_SpeedTypeDef speed)
 847:STM32F411/Middlewares/ST/STM32_USB_Device_Library/Core/Src/usbd_core.c **** {
ARM GAS  /tmp/cc9vlpLu.s 			page 28


 685              		.loc 1 847 1 is_stmt 1 view -0
 686              		.cfi_startproc
 687              		@ args = 0, pretend = 0, frame = 0
 688              		@ frame_needed = 0, uses_anonymous_args = 0
 689              		@ link register save eliminated.
 848:STM32F411/Middlewares/ST/STM32_USB_Device_Library/Core/Src/usbd_core.c ****   pdev->dev_speed = speed;
 690              		.loc 1 848 3 view .LVU190
 691              		.loc 1 848 19 is_stmt 0 view .LVU191
 692 0000 0174     		strb	r1, [r0, #16]
 849:STM32F411/Middlewares/ST/STM32_USB_Device_Library/Core/Src/usbd_core.c **** 
 850:STM32F411/Middlewares/ST/STM32_USB_Device_Library/Core/Src/usbd_core.c ****   return USBD_OK;
 693              		.loc 1 850 3 is_stmt 1 view .LVU192
 851:STM32F411/Middlewares/ST/STM32_USB_Device_Library/Core/Src/usbd_core.c **** }
 694              		.loc 1 851 1 is_stmt 0 view .LVU193
 695 0002 0020     		movs	r0, #0
 696              	.LVL54:
 697              		.loc 1 851 1 view .LVU194
 698 0004 7047     		bx	lr
 699              		.cfi_endproc
 700              	.LFE150:
 702              		.section	.text.USBD_LL_Suspend,"ax",%progbits
 703              		.align	1
 704              		.global	USBD_LL_Suspend
 705              		.syntax unified
 706              		.thumb
 707              		.thumb_func
 709              	USBD_LL_Suspend:
 710              	.LVL55:
 711              	.LFB151:
 852:STM32F411/Middlewares/ST/STM32_USB_Device_Library/Core/Src/usbd_core.c **** 
 853:STM32F411/Middlewares/ST/STM32_USB_Device_Library/Core/Src/usbd_core.c **** /**
 854:STM32F411/Middlewares/ST/STM32_USB_Device_Library/Core/Src/usbd_core.c ****   * @brief  USBD_LL_Suspend
 855:STM32F411/Middlewares/ST/STM32_USB_Device_Library/Core/Src/usbd_core.c ****   *         Handle Suspend event
 856:STM32F411/Middlewares/ST/STM32_USB_Device_Library/Core/Src/usbd_core.c ****   * @param  pdev: device instance
 857:STM32F411/Middlewares/ST/STM32_USB_Device_Library/Core/Src/usbd_core.c ****   * @retval status
 858:STM32F411/Middlewares/ST/STM32_USB_Device_Library/Core/Src/usbd_core.c ****   */
 859:STM32F411/Middlewares/ST/STM32_USB_Device_Library/Core/Src/usbd_core.c **** 
 860:STM32F411/Middlewares/ST/STM32_USB_Device_Library/Core/Src/usbd_core.c **** USBD_StatusTypeDef USBD_LL_Suspend(USBD_HandleTypeDef *pdev)
 861:STM32F411/Middlewares/ST/STM32_USB_Device_Library/Core/Src/usbd_core.c **** {
 712              		.loc 1 861 1 is_stmt 1 view -0
 713              		.cfi_startproc
 714              		@ args = 0, pretend = 0, frame = 0
 715              		@ frame_needed = 0, uses_anonymous_args = 0
 716              		@ link register save eliminated.
 862:STM32F411/Middlewares/ST/STM32_USB_Device_Library/Core/Src/usbd_core.c ****   if (pdev->dev_state != USBD_STATE_SUSPENDED)
 717              		.loc 1 862 3 view .LVU196
 718              		.loc 1 862 11 is_stmt 0 view .LVU197
 719 0000 90F89C32 		ldrb	r3, [r0, #668]	@ zero_extendqisi2
 720 0004 DBB2     		uxtb	r3, r3
 721              		.loc 1 862 6 view .LVU198
 722 0006 042B     		cmp	r3, #4
 723 0008 04D0     		beq	.L47
 863:STM32F411/Middlewares/ST/STM32_USB_Device_Library/Core/Src/usbd_core.c ****   {
 864:STM32F411/Middlewares/ST/STM32_USB_Device_Library/Core/Src/usbd_core.c ****     pdev->dev_old_state = pdev->dev_state;
 724              		.loc 1 864 5 is_stmt 1 view .LVU199
 725              		.loc 1 864 31 is_stmt 0 view .LVU200
 726 000a 90F89C32 		ldrb	r3, [r0, #668]	@ zero_extendqisi2
ARM GAS  /tmp/cc9vlpLu.s 			page 29


 727 000e DBB2     		uxtb	r3, r3
 728              		.loc 1 864 25 view .LVU201
 729 0010 80F89D32 		strb	r3, [r0, #669]
 730              	.L47:
 865:STM32F411/Middlewares/ST/STM32_USB_Device_Library/Core/Src/usbd_core.c ****   }
 866:STM32F411/Middlewares/ST/STM32_USB_Device_Library/Core/Src/usbd_core.c **** 
 867:STM32F411/Middlewares/ST/STM32_USB_Device_Library/Core/Src/usbd_core.c ****   pdev->dev_state = USBD_STATE_SUSPENDED;
 731              		.loc 1 867 3 is_stmt 1 view .LVU202
 732              		.loc 1 867 19 is_stmt 0 view .LVU203
 733 0014 0423     		movs	r3, #4
 734 0016 80F89C32 		strb	r3, [r0, #668]
 868:STM32F411/Middlewares/ST/STM32_USB_Device_Library/Core/Src/usbd_core.c **** 
 869:STM32F411/Middlewares/ST/STM32_USB_Device_Library/Core/Src/usbd_core.c ****   return USBD_OK;
 735              		.loc 1 869 3 is_stmt 1 view .LVU204
 870:STM32F411/Middlewares/ST/STM32_USB_Device_Library/Core/Src/usbd_core.c **** }
 736              		.loc 1 870 1 is_stmt 0 view .LVU205
 737 001a 0020     		movs	r0, #0
 738              	.LVL56:
 739              		.loc 1 870 1 view .LVU206
 740 001c 7047     		bx	lr
 741              		.cfi_endproc
 742              	.LFE151:
 744              		.section	.text.USBD_LL_Resume,"ax",%progbits
 745              		.align	1
 746              		.global	USBD_LL_Resume
 747              		.syntax unified
 748              		.thumb
 749              		.thumb_func
 751              	USBD_LL_Resume:
 752              	.LVL57:
 753              	.LFB152:
 871:STM32F411/Middlewares/ST/STM32_USB_Device_Library/Core/Src/usbd_core.c **** 
 872:STM32F411/Middlewares/ST/STM32_USB_Device_Library/Core/Src/usbd_core.c **** /**
 873:STM32F411/Middlewares/ST/STM32_USB_Device_Library/Core/Src/usbd_core.c ****   * @brief  USBD_LL_Resume
 874:STM32F411/Middlewares/ST/STM32_USB_Device_Library/Core/Src/usbd_core.c ****   *         Handle Resume event
 875:STM32F411/Middlewares/ST/STM32_USB_Device_Library/Core/Src/usbd_core.c ****   * @param  pdev: device instance
 876:STM32F411/Middlewares/ST/STM32_USB_Device_Library/Core/Src/usbd_core.c ****   * @retval status
 877:STM32F411/Middlewares/ST/STM32_USB_Device_Library/Core/Src/usbd_core.c ****   */
 878:STM32F411/Middlewares/ST/STM32_USB_Device_Library/Core/Src/usbd_core.c **** 
 879:STM32F411/Middlewares/ST/STM32_USB_Device_Library/Core/Src/usbd_core.c **** USBD_StatusTypeDef USBD_LL_Resume(USBD_HandleTypeDef *pdev)
 880:STM32F411/Middlewares/ST/STM32_USB_Device_Library/Core/Src/usbd_core.c **** {
 754              		.loc 1 880 1 is_stmt 1 view -0
 755              		.cfi_startproc
 756              		@ args = 0, pretend = 0, frame = 0
 757              		@ frame_needed = 0, uses_anonymous_args = 0
 758              		@ link register save eliminated.
 881:STM32F411/Middlewares/ST/STM32_USB_Device_Library/Core/Src/usbd_core.c ****   if (pdev->dev_state == USBD_STATE_SUSPENDED)
 759              		.loc 1 881 3 view .LVU208
 760              		.loc 1 881 11 is_stmt 0 view .LVU209
 761 0000 90F89C32 		ldrb	r3, [r0, #668]	@ zero_extendqisi2
 762 0004 DBB2     		uxtb	r3, r3
 763              		.loc 1 881 6 view .LVU210
 764 0006 042B     		cmp	r3, #4
 765 0008 01D0     		beq	.L50
 766              	.L49:
 882:STM32F411/Middlewares/ST/STM32_USB_Device_Library/Core/Src/usbd_core.c ****   {
 883:STM32F411/Middlewares/ST/STM32_USB_Device_Library/Core/Src/usbd_core.c ****     pdev->dev_state = pdev->dev_old_state;
ARM GAS  /tmp/cc9vlpLu.s 			page 30


 884:STM32F411/Middlewares/ST/STM32_USB_Device_Library/Core/Src/usbd_core.c ****   }
 885:STM32F411/Middlewares/ST/STM32_USB_Device_Library/Core/Src/usbd_core.c **** 
 886:STM32F411/Middlewares/ST/STM32_USB_Device_Library/Core/Src/usbd_core.c ****   return USBD_OK;
 767              		.loc 1 886 3 is_stmt 1 view .LVU211
 887:STM32F411/Middlewares/ST/STM32_USB_Device_Library/Core/Src/usbd_core.c **** }
 768              		.loc 1 887 1 is_stmt 0 view .LVU212
 769 000a 0020     		movs	r0, #0
 770              	.LVL58:
 771              		.loc 1 887 1 view .LVU213
 772 000c 7047     		bx	lr
 773              	.LVL59:
 774              	.L50:
 883:STM32F411/Middlewares/ST/STM32_USB_Device_Library/Core/Src/usbd_core.c ****   }
 775              		.loc 1 883 5 is_stmt 1 view .LVU214
 883:STM32F411/Middlewares/ST/STM32_USB_Device_Library/Core/Src/usbd_core.c ****   }
 776              		.loc 1 883 27 is_stmt 0 view .LVU215
 777 000e 90F89D32 		ldrb	r3, [r0, #669]	@ zero_extendqisi2
 778 0012 DBB2     		uxtb	r3, r3
 883:STM32F411/Middlewares/ST/STM32_USB_Device_Library/Core/Src/usbd_core.c ****   }
 779              		.loc 1 883 21 view .LVU216
 780 0014 80F89C32 		strb	r3, [r0, #668]
 781 0018 F7E7     		b	.L49
 782              		.cfi_endproc
 783              	.LFE152:
 785              		.section	.text.USBD_LL_SOF,"ax",%progbits
 786              		.align	1
 787              		.global	USBD_LL_SOF
 788              		.syntax unified
 789              		.thumb
 790              		.thumb_func
 792              	USBD_LL_SOF:
 793              	.LVL60:
 794              	.LFB153:
 888:STM32F411/Middlewares/ST/STM32_USB_Device_Library/Core/Src/usbd_core.c **** 
 889:STM32F411/Middlewares/ST/STM32_USB_Device_Library/Core/Src/usbd_core.c **** /**
 890:STM32F411/Middlewares/ST/STM32_USB_Device_Library/Core/Src/usbd_core.c ****   * @brief  USBD_LL_SOF
 891:STM32F411/Middlewares/ST/STM32_USB_Device_Library/Core/Src/usbd_core.c ****   *         Handle SOF event
 892:STM32F411/Middlewares/ST/STM32_USB_Device_Library/Core/Src/usbd_core.c ****   * @param  pdev: device instance
 893:STM32F411/Middlewares/ST/STM32_USB_Device_Library/Core/Src/usbd_core.c ****   * @retval status
 894:STM32F411/Middlewares/ST/STM32_USB_Device_Library/Core/Src/usbd_core.c ****   */
 895:STM32F411/Middlewares/ST/STM32_USB_Device_Library/Core/Src/usbd_core.c **** 
 896:STM32F411/Middlewares/ST/STM32_USB_Device_Library/Core/Src/usbd_core.c **** USBD_StatusTypeDef USBD_LL_SOF(USBD_HandleTypeDef *pdev)
 897:STM32F411/Middlewares/ST/STM32_USB_Device_Library/Core/Src/usbd_core.c **** {
 795              		.loc 1 897 1 is_stmt 1 view -0
 796              		.cfi_startproc
 797              		@ args = 0, pretend = 0, frame = 0
 798              		@ frame_needed = 0, uses_anonymous_args = 0
 799              		.loc 1 897 1 is_stmt 0 view .LVU218
 800 0000 08B5     		push	{r3, lr}
 801              	.LCFI12:
 802              		.cfi_def_cfa_offset 8
 803              		.cfi_offset 3, -8
 804              		.cfi_offset 14, -4
 898:STM32F411/Middlewares/ST/STM32_USB_Device_Library/Core/Src/usbd_core.c ****   /* The SOF event can be distributed for all classes that support it */
 899:STM32F411/Middlewares/ST/STM32_USB_Device_Library/Core/Src/usbd_core.c ****   if (pdev->dev_state == USBD_STATE_CONFIGURED)
 805              		.loc 1 899 3 is_stmt 1 view .LVU219
 806              		.loc 1 899 11 is_stmt 0 view .LVU220
ARM GAS  /tmp/cc9vlpLu.s 			page 31


 807 0002 90F89C32 		ldrb	r3, [r0, #668]	@ zero_extendqisi2
 808 0006 DBB2     		uxtb	r3, r3
 809              		.loc 1 899 6 view .LVU221
 810 0008 032B     		cmp	r3, #3
 811 000a 01D0     		beq	.L54
 812              	.LVL61:
 813              	.L52:
 900:STM32F411/Middlewares/ST/STM32_USB_Device_Library/Core/Src/usbd_core.c ****   {
 901:STM32F411/Middlewares/ST/STM32_USB_Device_Library/Core/Src/usbd_core.c **** #ifdef USE_USBD_COMPOSITE
 902:STM32F411/Middlewares/ST/STM32_USB_Device_Library/Core/Src/usbd_core.c ****     /* Parse the table of classes in use */
 903:STM32F411/Middlewares/ST/STM32_USB_Device_Library/Core/Src/usbd_core.c ****     for (uint32_t i = 0; i < USBD_MAX_SUPPORTED_CLASS; i++)
 904:STM32F411/Middlewares/ST/STM32_USB_Device_Library/Core/Src/usbd_core.c ****     {
 905:STM32F411/Middlewares/ST/STM32_USB_Device_Library/Core/Src/usbd_core.c ****       /* Check if current class is in use */
 906:STM32F411/Middlewares/ST/STM32_USB_Device_Library/Core/Src/usbd_core.c ****       if ((pdev->tclasslist[i].Active) == 1U)
 907:STM32F411/Middlewares/ST/STM32_USB_Device_Library/Core/Src/usbd_core.c ****       {
 908:STM32F411/Middlewares/ST/STM32_USB_Device_Library/Core/Src/usbd_core.c ****         if (pdev->pClass[i] != NULL)
 909:STM32F411/Middlewares/ST/STM32_USB_Device_Library/Core/Src/usbd_core.c ****         {
 910:STM32F411/Middlewares/ST/STM32_USB_Device_Library/Core/Src/usbd_core.c ****           if (pdev->pClass[i]->SOF != NULL)
 911:STM32F411/Middlewares/ST/STM32_USB_Device_Library/Core/Src/usbd_core.c ****           {
 912:STM32F411/Middlewares/ST/STM32_USB_Device_Library/Core/Src/usbd_core.c ****             pdev->classId = i;
 913:STM32F411/Middlewares/ST/STM32_USB_Device_Library/Core/Src/usbd_core.c ****             (void)pdev->pClass[i]->SOF(pdev);
 914:STM32F411/Middlewares/ST/STM32_USB_Device_Library/Core/Src/usbd_core.c ****           }
 915:STM32F411/Middlewares/ST/STM32_USB_Device_Library/Core/Src/usbd_core.c ****         }
 916:STM32F411/Middlewares/ST/STM32_USB_Device_Library/Core/Src/usbd_core.c ****       }
 917:STM32F411/Middlewares/ST/STM32_USB_Device_Library/Core/Src/usbd_core.c ****     }
 918:STM32F411/Middlewares/ST/STM32_USB_Device_Library/Core/Src/usbd_core.c **** #else
 919:STM32F411/Middlewares/ST/STM32_USB_Device_Library/Core/Src/usbd_core.c ****     if (pdev->pClass[0] != NULL)
 920:STM32F411/Middlewares/ST/STM32_USB_Device_Library/Core/Src/usbd_core.c ****     {
 921:STM32F411/Middlewares/ST/STM32_USB_Device_Library/Core/Src/usbd_core.c ****       if (pdev->pClass[0]->SOF != NULL)
 922:STM32F411/Middlewares/ST/STM32_USB_Device_Library/Core/Src/usbd_core.c ****       {
 923:STM32F411/Middlewares/ST/STM32_USB_Device_Library/Core/Src/usbd_core.c ****         (void)pdev->pClass[0]->SOF(pdev);
 924:STM32F411/Middlewares/ST/STM32_USB_Device_Library/Core/Src/usbd_core.c ****       }
 925:STM32F411/Middlewares/ST/STM32_USB_Device_Library/Core/Src/usbd_core.c ****     }
 926:STM32F411/Middlewares/ST/STM32_USB_Device_Library/Core/Src/usbd_core.c **** #endif /* USE_USBD_COMPOSITE */
 927:STM32F411/Middlewares/ST/STM32_USB_Device_Library/Core/Src/usbd_core.c ****   }
 928:STM32F411/Middlewares/ST/STM32_USB_Device_Library/Core/Src/usbd_core.c **** 
 929:STM32F411/Middlewares/ST/STM32_USB_Device_Library/Core/Src/usbd_core.c ****   return USBD_OK;
 814              		.loc 1 929 3 is_stmt 1 view .LVU222
 930:STM32F411/Middlewares/ST/STM32_USB_Device_Library/Core/Src/usbd_core.c **** }
 815              		.loc 1 930 1 is_stmt 0 view .LVU223
 816 000c 0020     		movs	r0, #0
 817 000e 08BD     		pop	{r3, pc}
 818              	.LVL62:
 819              	.L54:
 919:STM32F411/Middlewares/ST/STM32_USB_Device_Library/Core/Src/usbd_core.c ****     {
 820              		.loc 1 919 5 is_stmt 1 view .LVU224
 919:STM32F411/Middlewares/ST/STM32_USB_Device_Library/Core/Src/usbd_core.c ****     {
 821              		.loc 1 919 21 is_stmt 0 view .LVU225
 822 0010 D0F8B832 		ldr	r3, [r0, #696]
 919:STM32F411/Middlewares/ST/STM32_USB_Device_Library/Core/Src/usbd_core.c ****     {
 823              		.loc 1 919 8 view .LVU226
 824 0014 002B     		cmp	r3, #0
 825 0016 F9D0     		beq	.L52
 921:STM32F411/Middlewares/ST/STM32_USB_Device_Library/Core/Src/usbd_core.c ****       {
 826              		.loc 1 921 7 is_stmt 1 view .LVU227
 921:STM32F411/Middlewares/ST/STM32_USB_Device_Library/Core/Src/usbd_core.c ****       {
 827              		.loc 1 921 26 is_stmt 0 view .LVU228
ARM GAS  /tmp/cc9vlpLu.s 			page 32


 828 0018 DB69     		ldr	r3, [r3, #28]
 921:STM32F411/Middlewares/ST/STM32_USB_Device_Library/Core/Src/usbd_core.c ****       {
 829              		.loc 1 921 10 view .LVU229
 830 001a 002B     		cmp	r3, #0
 831 001c F6D0     		beq	.L52
 923:STM32F411/Middlewares/ST/STM32_USB_Device_Library/Core/Src/usbd_core.c ****       }
 832              		.loc 1 923 9 is_stmt 1 view .LVU230
 923:STM32F411/Middlewares/ST/STM32_USB_Device_Library/Core/Src/usbd_core.c ****       }
 833              		.loc 1 923 15 is_stmt 0 view .LVU231
 834 001e 9847     		blx	r3
 835              	.LVL63:
 923:STM32F411/Middlewares/ST/STM32_USB_Device_Library/Core/Src/usbd_core.c ****       }
 836              		.loc 1 923 15 view .LVU232
 837 0020 F4E7     		b	.L52
 838              		.cfi_endproc
 839              	.LFE153:
 841              		.section	.text.USBD_LL_IsoINIncomplete,"ax",%progbits
 842              		.align	1
 843              		.global	USBD_LL_IsoINIncomplete
 844              		.syntax unified
 845              		.thumb
 846              		.thumb_func
 848              	USBD_LL_IsoINIncomplete:
 849              	.LVL64:
 850              	.LFB154:
 931:STM32F411/Middlewares/ST/STM32_USB_Device_Library/Core/Src/usbd_core.c **** 
 932:STM32F411/Middlewares/ST/STM32_USB_Device_Library/Core/Src/usbd_core.c **** /**
 933:STM32F411/Middlewares/ST/STM32_USB_Device_Library/Core/Src/usbd_core.c ****   * @brief  USBD_LL_IsoINIncomplete
 934:STM32F411/Middlewares/ST/STM32_USB_Device_Library/Core/Src/usbd_core.c ****   *         Handle iso in incomplete event
 935:STM32F411/Middlewares/ST/STM32_USB_Device_Library/Core/Src/usbd_core.c ****   * @param  pdev: device instance
 936:STM32F411/Middlewares/ST/STM32_USB_Device_Library/Core/Src/usbd_core.c ****   * @retval status
 937:STM32F411/Middlewares/ST/STM32_USB_Device_Library/Core/Src/usbd_core.c ****   */
 938:STM32F411/Middlewares/ST/STM32_USB_Device_Library/Core/Src/usbd_core.c **** USBD_StatusTypeDef USBD_LL_IsoINIncomplete(USBD_HandleTypeDef *pdev,
 939:STM32F411/Middlewares/ST/STM32_USB_Device_Library/Core/Src/usbd_core.c ****                                            uint8_t epnum)
 940:STM32F411/Middlewares/ST/STM32_USB_Device_Library/Core/Src/usbd_core.c **** {
 851              		.loc 1 940 1 is_stmt 1 view -0
 852              		.cfi_startproc
 853              		@ args = 0, pretend = 0, frame = 0
 854              		@ frame_needed = 0, uses_anonymous_args = 0
 855              		.loc 1 940 1 is_stmt 0 view .LVU234
 856 0000 08B5     		push	{r3, lr}
 857              	.LCFI13:
 858              		.cfi_def_cfa_offset 8
 859              		.cfi_offset 3, -8
 860              		.cfi_offset 14, -4
 941:STM32F411/Middlewares/ST/STM32_USB_Device_Library/Core/Src/usbd_core.c ****   if (pdev->pClass[pdev->classId] == NULL)
 861              		.loc 1 941 3 is_stmt 1 view .LVU235
 862              		.loc 1 941 24 is_stmt 0 view .LVU236
 863 0002 D0F8D432 		ldr	r3, [r0, #724]
 864              		.loc 1 941 19 view .LVU237
 865 0006 AE33     		adds	r3, r3, #174
 866 0008 50F82320 		ldr	r2, [r0, r3, lsl #2]
 867              		.loc 1 941 6 view .LVU238
 868 000c 5AB1     		cbz	r2, .L57
 942:STM32F411/Middlewares/ST/STM32_USB_Device_Library/Core/Src/usbd_core.c ****   {
 943:STM32F411/Middlewares/ST/STM32_USB_Device_Library/Core/Src/usbd_core.c ****     return USBD_FAIL;
 944:STM32F411/Middlewares/ST/STM32_USB_Device_Library/Core/Src/usbd_core.c ****   }
ARM GAS  /tmp/cc9vlpLu.s 			page 33


 945:STM32F411/Middlewares/ST/STM32_USB_Device_Library/Core/Src/usbd_core.c **** 
 946:STM32F411/Middlewares/ST/STM32_USB_Device_Library/Core/Src/usbd_core.c ****   if (pdev->dev_state == USBD_STATE_CONFIGURED)
 869              		.loc 1 946 3 is_stmt 1 view .LVU239
 870              		.loc 1 946 11 is_stmt 0 view .LVU240
 871 000e 90F89C32 		ldrb	r3, [r0, #668]	@ zero_extendqisi2
 872 0012 DBB2     		uxtb	r3, r3
 873              		.loc 1 946 6 view .LVU241
 874 0014 032B     		cmp	r3, #3
 875 0016 01D0     		beq	.L61
 947:STM32F411/Middlewares/ST/STM32_USB_Device_Library/Core/Src/usbd_core.c ****   {
 948:STM32F411/Middlewares/ST/STM32_USB_Device_Library/Core/Src/usbd_core.c ****     if (pdev->pClass[pdev->classId]->IsoINIncomplete != NULL)
 949:STM32F411/Middlewares/ST/STM32_USB_Device_Library/Core/Src/usbd_core.c ****     {
 950:STM32F411/Middlewares/ST/STM32_USB_Device_Library/Core/Src/usbd_core.c ****       (void)pdev->pClass[pdev->classId]->IsoINIncomplete(pdev, epnum);
 951:STM32F411/Middlewares/ST/STM32_USB_Device_Library/Core/Src/usbd_core.c ****     }
 952:STM32F411/Middlewares/ST/STM32_USB_Device_Library/Core/Src/usbd_core.c ****   }
 953:STM32F411/Middlewares/ST/STM32_USB_Device_Library/Core/Src/usbd_core.c **** 
 954:STM32F411/Middlewares/ST/STM32_USB_Device_Library/Core/Src/usbd_core.c ****   return USBD_OK;
 876              		.loc 1 954 10 view .LVU242
 877 0018 0020     		movs	r0, #0
 878              	.LVL65:
 879              	.L56:
 955:STM32F411/Middlewares/ST/STM32_USB_Device_Library/Core/Src/usbd_core.c **** }
 880              		.loc 1 955 1 view .LVU243
 881 001a 08BD     		pop	{r3, pc}
 882              	.LVL66:
 883              	.L61:
 948:STM32F411/Middlewares/ST/STM32_USB_Device_Library/Core/Src/usbd_core.c ****     {
 884              		.loc 1 948 5 is_stmt 1 view .LVU244
 948:STM32F411/Middlewares/ST/STM32_USB_Device_Library/Core/Src/usbd_core.c ****     {
 885              		.loc 1 948 36 is_stmt 0 view .LVU245
 886 001c 136A     		ldr	r3, [r2, #32]
 948:STM32F411/Middlewares/ST/STM32_USB_Device_Library/Core/Src/usbd_core.c ****     {
 887              		.loc 1 948 8 view .LVU246
 888 001e 23B1     		cbz	r3, .L59
 950:STM32F411/Middlewares/ST/STM32_USB_Device_Library/Core/Src/usbd_core.c ****     }
 889              		.loc 1 950 7 is_stmt 1 view .LVU247
 950:STM32F411/Middlewares/ST/STM32_USB_Device_Library/Core/Src/usbd_core.c ****     }
 890              		.loc 1 950 13 is_stmt 0 view .LVU248
 891 0020 9847     		blx	r3
 892              	.LVL67:
 954:STM32F411/Middlewares/ST/STM32_USB_Device_Library/Core/Src/usbd_core.c **** }
 893              		.loc 1 954 10 view .LVU249
 894 0022 0020     		movs	r0, #0
 895 0024 F9E7     		b	.L56
 896              	.LVL68:
 897              	.L57:
 943:STM32F411/Middlewares/ST/STM32_USB_Device_Library/Core/Src/usbd_core.c ****   }
 898              		.loc 1 943 12 view .LVU250
 899 0026 0320     		movs	r0, #3
 900              	.LVL69:
 943:STM32F411/Middlewares/ST/STM32_USB_Device_Library/Core/Src/usbd_core.c ****   }
 901              		.loc 1 943 12 view .LVU251
 902 0028 F7E7     		b	.L56
 903              	.LVL70:
 904              	.L59:
 954:STM32F411/Middlewares/ST/STM32_USB_Device_Library/Core/Src/usbd_core.c **** }
 905              		.loc 1 954 10 view .LVU252
ARM GAS  /tmp/cc9vlpLu.s 			page 34


 906 002a 0020     		movs	r0, #0
 907              	.LVL71:
 954:STM32F411/Middlewares/ST/STM32_USB_Device_Library/Core/Src/usbd_core.c **** }
 908              		.loc 1 954 10 view .LVU253
 909 002c F5E7     		b	.L56
 910              		.cfi_endproc
 911              	.LFE154:
 913              		.section	.text.USBD_LL_IsoOUTIncomplete,"ax",%progbits
 914              		.align	1
 915              		.global	USBD_LL_IsoOUTIncomplete
 916              		.syntax unified
 917              		.thumb
 918              		.thumb_func
 920              	USBD_LL_IsoOUTIncomplete:
 921              	.LVL72:
 922              	.LFB155:
 956:STM32F411/Middlewares/ST/STM32_USB_Device_Library/Core/Src/usbd_core.c **** 
 957:STM32F411/Middlewares/ST/STM32_USB_Device_Library/Core/Src/usbd_core.c **** /**
 958:STM32F411/Middlewares/ST/STM32_USB_Device_Library/Core/Src/usbd_core.c ****   * @brief  USBD_LL_IsoOUTIncomplete
 959:STM32F411/Middlewares/ST/STM32_USB_Device_Library/Core/Src/usbd_core.c ****   *         Handle iso out incomplete event
 960:STM32F411/Middlewares/ST/STM32_USB_Device_Library/Core/Src/usbd_core.c ****   * @param  pdev: device instance
 961:STM32F411/Middlewares/ST/STM32_USB_Device_Library/Core/Src/usbd_core.c ****   * @retval status
 962:STM32F411/Middlewares/ST/STM32_USB_Device_Library/Core/Src/usbd_core.c ****   */
 963:STM32F411/Middlewares/ST/STM32_USB_Device_Library/Core/Src/usbd_core.c **** USBD_StatusTypeDef USBD_LL_IsoOUTIncomplete(USBD_HandleTypeDef *pdev,
 964:STM32F411/Middlewares/ST/STM32_USB_Device_Library/Core/Src/usbd_core.c ****                                             uint8_t epnum)
 965:STM32F411/Middlewares/ST/STM32_USB_Device_Library/Core/Src/usbd_core.c **** {
 923              		.loc 1 965 1 is_stmt 1 view -0
 924              		.cfi_startproc
 925              		@ args = 0, pretend = 0, frame = 0
 926              		@ frame_needed = 0, uses_anonymous_args = 0
 927              		.loc 1 965 1 is_stmt 0 view .LVU255
 928 0000 08B5     		push	{r3, lr}
 929              	.LCFI14:
 930              		.cfi_def_cfa_offset 8
 931              		.cfi_offset 3, -8
 932              		.cfi_offset 14, -4
 966:STM32F411/Middlewares/ST/STM32_USB_Device_Library/Core/Src/usbd_core.c ****   if (pdev->pClass[pdev->classId] == NULL)
 933              		.loc 1 966 3 is_stmt 1 view .LVU256
 934              		.loc 1 966 24 is_stmt 0 view .LVU257
 935 0002 D0F8D432 		ldr	r3, [r0, #724]
 936              		.loc 1 966 19 view .LVU258
 937 0006 AE33     		adds	r3, r3, #174
 938 0008 50F82320 		ldr	r2, [r0, r3, lsl #2]
 939              		.loc 1 966 6 view .LVU259
 940 000c 5AB1     		cbz	r2, .L64
 967:STM32F411/Middlewares/ST/STM32_USB_Device_Library/Core/Src/usbd_core.c ****   {
 968:STM32F411/Middlewares/ST/STM32_USB_Device_Library/Core/Src/usbd_core.c ****     return USBD_FAIL;
 969:STM32F411/Middlewares/ST/STM32_USB_Device_Library/Core/Src/usbd_core.c ****   }
 970:STM32F411/Middlewares/ST/STM32_USB_Device_Library/Core/Src/usbd_core.c **** 
 971:STM32F411/Middlewares/ST/STM32_USB_Device_Library/Core/Src/usbd_core.c ****   if (pdev->dev_state == USBD_STATE_CONFIGURED)
 941              		.loc 1 971 3 is_stmt 1 view .LVU260
 942              		.loc 1 971 11 is_stmt 0 view .LVU261
 943 000e 90F89C32 		ldrb	r3, [r0, #668]	@ zero_extendqisi2
 944 0012 DBB2     		uxtb	r3, r3
 945              		.loc 1 971 6 view .LVU262
 946 0014 032B     		cmp	r3, #3
 947 0016 01D0     		beq	.L68
ARM GAS  /tmp/cc9vlpLu.s 			page 35


 972:STM32F411/Middlewares/ST/STM32_USB_Device_Library/Core/Src/usbd_core.c ****   {
 973:STM32F411/Middlewares/ST/STM32_USB_Device_Library/Core/Src/usbd_core.c ****     if (pdev->pClass[pdev->classId]->IsoOUTIncomplete != NULL)
 974:STM32F411/Middlewares/ST/STM32_USB_Device_Library/Core/Src/usbd_core.c ****     {
 975:STM32F411/Middlewares/ST/STM32_USB_Device_Library/Core/Src/usbd_core.c ****       (void)pdev->pClass[pdev->classId]->IsoOUTIncomplete(pdev, epnum);
 976:STM32F411/Middlewares/ST/STM32_USB_Device_Library/Core/Src/usbd_core.c ****     }
 977:STM32F411/Middlewares/ST/STM32_USB_Device_Library/Core/Src/usbd_core.c ****   }
 978:STM32F411/Middlewares/ST/STM32_USB_Device_Library/Core/Src/usbd_core.c **** 
 979:STM32F411/Middlewares/ST/STM32_USB_Device_Library/Core/Src/usbd_core.c ****   return USBD_OK;
 948              		.loc 1 979 10 view .LVU263
 949 0018 0020     		movs	r0, #0
 950              	.LVL73:
 951              	.L63:
 980:STM32F411/Middlewares/ST/STM32_USB_Device_Library/Core/Src/usbd_core.c **** }
 952              		.loc 1 980 1 view .LVU264
 953 001a 08BD     		pop	{r3, pc}
 954              	.LVL74:
 955              	.L68:
 973:STM32F411/Middlewares/ST/STM32_USB_Device_Library/Core/Src/usbd_core.c ****     {
 956              		.loc 1 973 5 is_stmt 1 view .LVU265
 973:STM32F411/Middlewares/ST/STM32_USB_Device_Library/Core/Src/usbd_core.c ****     {
 957              		.loc 1 973 36 is_stmt 0 view .LVU266
 958 001c 536A     		ldr	r3, [r2, #36]
 973:STM32F411/Middlewares/ST/STM32_USB_Device_Library/Core/Src/usbd_core.c ****     {
 959              		.loc 1 973 8 view .LVU267
 960 001e 23B1     		cbz	r3, .L66
 975:STM32F411/Middlewares/ST/STM32_USB_Device_Library/Core/Src/usbd_core.c ****     }
 961              		.loc 1 975 7 is_stmt 1 view .LVU268
 975:STM32F411/Middlewares/ST/STM32_USB_Device_Library/Core/Src/usbd_core.c ****     }
 962              		.loc 1 975 13 is_stmt 0 view .LVU269
 963 0020 9847     		blx	r3
 964              	.LVL75:
 979:STM32F411/Middlewares/ST/STM32_USB_Device_Library/Core/Src/usbd_core.c **** }
 965              		.loc 1 979 10 view .LVU270
 966 0022 0020     		movs	r0, #0
 967 0024 F9E7     		b	.L63
 968              	.LVL76:
 969              	.L64:
 968:STM32F411/Middlewares/ST/STM32_USB_Device_Library/Core/Src/usbd_core.c ****   }
 970              		.loc 1 968 12 view .LVU271
 971 0026 0320     		movs	r0, #3
 972              	.LVL77:
 968:STM32F411/Middlewares/ST/STM32_USB_Device_Library/Core/Src/usbd_core.c ****   }
 973              		.loc 1 968 12 view .LVU272
 974 0028 F7E7     		b	.L63
 975              	.LVL78:
 976              	.L66:
 979:STM32F411/Middlewares/ST/STM32_USB_Device_Library/Core/Src/usbd_core.c **** }
 977              		.loc 1 979 10 view .LVU273
 978 002a 0020     		movs	r0, #0
 979              	.LVL79:
 979:STM32F411/Middlewares/ST/STM32_USB_Device_Library/Core/Src/usbd_core.c **** }
 980              		.loc 1 979 10 view .LVU274
 981 002c F5E7     		b	.L63
 982              		.cfi_endproc
 983              	.LFE155:
 985              		.section	.text.USBD_LL_DevConnected,"ax",%progbits
 986              		.align	1
ARM GAS  /tmp/cc9vlpLu.s 			page 36


 987              		.global	USBD_LL_DevConnected
 988              		.syntax unified
 989              		.thumb
 990              		.thumb_func
 992              	USBD_LL_DevConnected:
 993              	.LVL80:
 994              	.LFB156:
 981:STM32F411/Middlewares/ST/STM32_USB_Device_Library/Core/Src/usbd_core.c **** 
 982:STM32F411/Middlewares/ST/STM32_USB_Device_Library/Core/Src/usbd_core.c **** /**
 983:STM32F411/Middlewares/ST/STM32_USB_Device_Library/Core/Src/usbd_core.c ****   * @brief  USBD_LL_DevConnected
 984:STM32F411/Middlewares/ST/STM32_USB_Device_Library/Core/Src/usbd_core.c ****   *         Handle device connection event
 985:STM32F411/Middlewares/ST/STM32_USB_Device_Library/Core/Src/usbd_core.c ****   * @param  pdev: device instance
 986:STM32F411/Middlewares/ST/STM32_USB_Device_Library/Core/Src/usbd_core.c ****   * @retval status
 987:STM32F411/Middlewares/ST/STM32_USB_Device_Library/Core/Src/usbd_core.c ****   */
 988:STM32F411/Middlewares/ST/STM32_USB_Device_Library/Core/Src/usbd_core.c **** USBD_StatusTypeDef USBD_LL_DevConnected(USBD_HandleTypeDef *pdev)
 989:STM32F411/Middlewares/ST/STM32_USB_Device_Library/Core/Src/usbd_core.c **** {
 995              		.loc 1 989 1 is_stmt 1 view -0
 996              		.cfi_startproc
 997              		@ args = 0, pretend = 0, frame = 0
 998              		@ frame_needed = 0, uses_anonymous_args = 0
 999              		@ link register save eliminated.
 990:STM32F411/Middlewares/ST/STM32_USB_Device_Library/Core/Src/usbd_core.c ****   /* Prevent unused argument compilation warning */
 991:STM32F411/Middlewares/ST/STM32_USB_Device_Library/Core/Src/usbd_core.c ****   UNUSED(pdev);
 1000              		.loc 1 991 3 view .LVU276
 992:STM32F411/Middlewares/ST/STM32_USB_Device_Library/Core/Src/usbd_core.c **** 
 993:STM32F411/Middlewares/ST/STM32_USB_Device_Library/Core/Src/usbd_core.c ****   return USBD_OK;
 1001              		.loc 1 993 3 view .LVU277
 994:STM32F411/Middlewares/ST/STM32_USB_Device_Library/Core/Src/usbd_core.c **** }
 1002              		.loc 1 994 1 is_stmt 0 view .LVU278
 1003 0000 0020     		movs	r0, #0
 1004              	.LVL81:
 1005              		.loc 1 994 1 view .LVU279
 1006 0002 7047     		bx	lr
 1007              		.cfi_endproc
 1008              	.LFE156:
 1010              		.section	.text.USBD_LL_DevDisconnected,"ax",%progbits
 1011              		.align	1
 1012              		.global	USBD_LL_DevDisconnected
 1013              		.syntax unified
 1014              		.thumb
 1015              		.thumb_func
 1017              	USBD_LL_DevDisconnected:
 1018              	.LVL82:
 1019              	.LFB157:
 995:STM32F411/Middlewares/ST/STM32_USB_Device_Library/Core/Src/usbd_core.c **** 
 996:STM32F411/Middlewares/ST/STM32_USB_Device_Library/Core/Src/usbd_core.c **** /**
 997:STM32F411/Middlewares/ST/STM32_USB_Device_Library/Core/Src/usbd_core.c ****   * @brief  USBD_LL_DevDisconnected
 998:STM32F411/Middlewares/ST/STM32_USB_Device_Library/Core/Src/usbd_core.c ****   *         Handle device disconnection event
 999:STM32F411/Middlewares/ST/STM32_USB_Device_Library/Core/Src/usbd_core.c ****   * @param  pdev: device instance
1000:STM32F411/Middlewares/ST/STM32_USB_Device_Library/Core/Src/usbd_core.c ****   * @retval status
1001:STM32F411/Middlewares/ST/STM32_USB_Device_Library/Core/Src/usbd_core.c ****   */
1002:STM32F411/Middlewares/ST/STM32_USB_Device_Library/Core/Src/usbd_core.c **** USBD_StatusTypeDef USBD_LL_DevDisconnected(USBD_HandleTypeDef *pdev)
1003:STM32F411/Middlewares/ST/STM32_USB_Device_Library/Core/Src/usbd_core.c **** {
 1020              		.loc 1 1003 1 is_stmt 1 view -0
 1021              		.cfi_startproc
 1022              		@ args = 0, pretend = 0, frame = 0
 1023              		@ frame_needed = 0, uses_anonymous_args = 0
ARM GAS  /tmp/cc9vlpLu.s 			page 37


 1024              		.loc 1 1003 1 is_stmt 0 view .LVU281
 1025 0000 08B5     		push	{r3, lr}
 1026              	.LCFI15:
 1027              		.cfi_def_cfa_offset 8
 1028              		.cfi_offset 3, -8
 1029              		.cfi_offset 14, -4
1004:STM32F411/Middlewares/ST/STM32_USB_Device_Library/Core/Src/usbd_core.c ****   USBD_StatusTypeDef   ret = USBD_OK;
 1030              		.loc 1 1004 3 is_stmt 1 view .LVU282
 1031              	.LVL83:
1005:STM32F411/Middlewares/ST/STM32_USB_Device_Library/Core/Src/usbd_core.c **** 
1006:STM32F411/Middlewares/ST/STM32_USB_Device_Library/Core/Src/usbd_core.c ****   /* Free Class Resources */
1007:STM32F411/Middlewares/ST/STM32_USB_Device_Library/Core/Src/usbd_core.c ****   pdev->dev_state = USBD_STATE_DEFAULT;
 1032              		.loc 1 1007 3 view .LVU283
 1033              		.loc 1 1007 19 is_stmt 0 view .LVU284
 1034 0002 0123     		movs	r3, #1
 1035 0004 80F89C32 		strb	r3, [r0, #668]
1008:STM32F411/Middlewares/ST/STM32_USB_Device_Library/Core/Src/usbd_core.c **** 
1009:STM32F411/Middlewares/ST/STM32_USB_Device_Library/Core/Src/usbd_core.c **** #ifdef USE_USBD_COMPOSITE
1010:STM32F411/Middlewares/ST/STM32_USB_Device_Library/Core/Src/usbd_core.c ****   /* Parse the table of classes in use */
1011:STM32F411/Middlewares/ST/STM32_USB_Device_Library/Core/Src/usbd_core.c ****   for (uint32_t i = 0; i < USBD_MAX_SUPPORTED_CLASS; i++)
1012:STM32F411/Middlewares/ST/STM32_USB_Device_Library/Core/Src/usbd_core.c ****   {
1013:STM32F411/Middlewares/ST/STM32_USB_Device_Library/Core/Src/usbd_core.c ****     /* Check if current class is in use */
1014:STM32F411/Middlewares/ST/STM32_USB_Device_Library/Core/Src/usbd_core.c ****     if ((pdev->tclasslist[i].Active) == 1U)
1015:STM32F411/Middlewares/ST/STM32_USB_Device_Library/Core/Src/usbd_core.c ****     {
1016:STM32F411/Middlewares/ST/STM32_USB_Device_Library/Core/Src/usbd_core.c ****       if (pdev->pClass[i] != NULL)
1017:STM32F411/Middlewares/ST/STM32_USB_Device_Library/Core/Src/usbd_core.c ****       {
1018:STM32F411/Middlewares/ST/STM32_USB_Device_Library/Core/Src/usbd_core.c ****         pdev->classId = i;
1019:STM32F411/Middlewares/ST/STM32_USB_Device_Library/Core/Src/usbd_core.c ****         /* Clear configuration  and De-initialize the Class process*/
1020:STM32F411/Middlewares/ST/STM32_USB_Device_Library/Core/Src/usbd_core.c ****         if (pdev->pClass[i]->DeInit(pdev, (uint8_t)pdev->dev_config) != 0U)
1021:STM32F411/Middlewares/ST/STM32_USB_Device_Library/Core/Src/usbd_core.c ****         {
1022:STM32F411/Middlewares/ST/STM32_USB_Device_Library/Core/Src/usbd_core.c ****           ret = USBD_FAIL;
1023:STM32F411/Middlewares/ST/STM32_USB_Device_Library/Core/Src/usbd_core.c ****         }
1024:STM32F411/Middlewares/ST/STM32_USB_Device_Library/Core/Src/usbd_core.c ****       }
1025:STM32F411/Middlewares/ST/STM32_USB_Device_Library/Core/Src/usbd_core.c ****     }
1026:STM32F411/Middlewares/ST/STM32_USB_Device_Library/Core/Src/usbd_core.c ****   }
1027:STM32F411/Middlewares/ST/STM32_USB_Device_Library/Core/Src/usbd_core.c **** #else
1028:STM32F411/Middlewares/ST/STM32_USB_Device_Library/Core/Src/usbd_core.c ****   if (pdev->pClass[0] != NULL)
 1036              		.loc 1 1028 3 is_stmt 1 view .LVU285
 1037              		.loc 1 1028 19 is_stmt 0 view .LVU286
 1038 0008 D0F8B832 		ldr	r3, [r0, #696]
 1039              		.loc 1 1028 6 view .LVU287
 1040 000c 23B1     		cbz	r3, .L72
1029:STM32F411/Middlewares/ST/STM32_USB_Device_Library/Core/Src/usbd_core.c ****   {
1030:STM32F411/Middlewares/ST/STM32_USB_Device_Library/Core/Src/usbd_core.c ****     if (pdev->pClass[0]->DeInit(pdev, (uint8_t)pdev->dev_config) != 0U)
 1041              		.loc 1 1030 5 is_stmt 1 view .LVU288
 1042              		.loc 1 1030 24 is_stmt 0 view .LVU289
 1043 000e 5B68     		ldr	r3, [r3, #4]
 1044              		.loc 1 1030 9 view .LVU290
 1045 0010 0179     		ldrb	r1, [r0, #4]	@ zero_extendqisi2
 1046 0012 9847     		blx	r3
 1047              	.LVL84:
 1048              		.loc 1 1030 8 discriminator 1 view .LVU291
 1049 0014 10B9     		cbnz	r0, .L75
 1050              	.L71:
 1051              	.LVL85:
1031:STM32F411/Middlewares/ST/STM32_USB_Device_Library/Core/Src/usbd_core.c ****     {
1032:STM32F411/Middlewares/ST/STM32_USB_Device_Library/Core/Src/usbd_core.c ****       ret = USBD_FAIL;
ARM GAS  /tmp/cc9vlpLu.s 			page 38


1033:STM32F411/Middlewares/ST/STM32_USB_Device_Library/Core/Src/usbd_core.c ****     }
1034:STM32F411/Middlewares/ST/STM32_USB_Device_Library/Core/Src/usbd_core.c ****   }
1035:STM32F411/Middlewares/ST/STM32_USB_Device_Library/Core/Src/usbd_core.c **** #endif /* USE_USBD_COMPOSITE */
1036:STM32F411/Middlewares/ST/STM32_USB_Device_Library/Core/Src/usbd_core.c **** 
1037:STM32F411/Middlewares/ST/STM32_USB_Device_Library/Core/Src/usbd_core.c ****   return ret;
 1052              		.loc 1 1037 3 is_stmt 1 view .LVU292
1038:STM32F411/Middlewares/ST/STM32_USB_Device_Library/Core/Src/usbd_core.c **** }
 1053              		.loc 1 1038 1 is_stmt 0 view .LVU293
 1054 0016 08BD     		pop	{r3, pc}
 1055              	.LVL86:
 1056              	.L72:
1004:STM32F411/Middlewares/ST/STM32_USB_Device_Library/Core/Src/usbd_core.c **** 
 1057              		.loc 1 1004 24 view .LVU294
 1058 0018 0020     		movs	r0, #0
 1059              	.LVL87:
1004:STM32F411/Middlewares/ST/STM32_USB_Device_Library/Core/Src/usbd_core.c **** 
 1060              		.loc 1 1004 24 view .LVU295
 1061 001a FCE7     		b	.L71
 1062              	.L75:
1032:STM32F411/Middlewares/ST/STM32_USB_Device_Library/Core/Src/usbd_core.c ****     }
 1063              		.loc 1 1032 11 view .LVU296
 1064 001c 0320     		movs	r0, #3
 1065 001e FAE7     		b	.L71
 1066              		.cfi_endproc
 1067              	.LFE157:
 1069              		.section	.text.USBD_CoreFindIF,"ax",%progbits
 1070              		.align	1
 1071              		.global	USBD_CoreFindIF
 1072              		.syntax unified
 1073              		.thumb
 1074              		.thumb_func
 1076              	USBD_CoreFindIF:
 1077              	.LVL88:
 1078              	.LFB158:
1039:STM32F411/Middlewares/ST/STM32_USB_Device_Library/Core/Src/usbd_core.c **** 
1040:STM32F411/Middlewares/ST/STM32_USB_Device_Library/Core/Src/usbd_core.c **** /**
1041:STM32F411/Middlewares/ST/STM32_USB_Device_Library/Core/Src/usbd_core.c ****   * @brief  USBD_CoreFindIF
1042:STM32F411/Middlewares/ST/STM32_USB_Device_Library/Core/Src/usbd_core.c ****   *         return the class index relative to the selected interface
1043:STM32F411/Middlewares/ST/STM32_USB_Device_Library/Core/Src/usbd_core.c ****   * @param  pdev: device instance
1044:STM32F411/Middlewares/ST/STM32_USB_Device_Library/Core/Src/usbd_core.c ****   * @param  index : selected interface number
1045:STM32F411/Middlewares/ST/STM32_USB_Device_Library/Core/Src/usbd_core.c ****   * @retval index of the class using the selected interface number. OxFF if no class found.
1046:STM32F411/Middlewares/ST/STM32_USB_Device_Library/Core/Src/usbd_core.c ****   */
1047:STM32F411/Middlewares/ST/STM32_USB_Device_Library/Core/Src/usbd_core.c **** uint8_t USBD_CoreFindIF(USBD_HandleTypeDef *pdev, uint8_t index)
1048:STM32F411/Middlewares/ST/STM32_USB_Device_Library/Core/Src/usbd_core.c **** {
 1079              		.loc 1 1048 1 is_stmt 1 view -0
 1080              		.cfi_startproc
 1081              		@ args = 0, pretend = 0, frame = 0
 1082              		@ frame_needed = 0, uses_anonymous_args = 0
 1083              		@ link register save eliminated.
1049:STM32F411/Middlewares/ST/STM32_USB_Device_Library/Core/Src/usbd_core.c **** #ifdef USE_USBD_COMPOSITE
1050:STM32F411/Middlewares/ST/STM32_USB_Device_Library/Core/Src/usbd_core.c ****   /* Parse the table of classes in use */
1051:STM32F411/Middlewares/ST/STM32_USB_Device_Library/Core/Src/usbd_core.c ****   for (uint32_t i = 0U; i < USBD_MAX_SUPPORTED_CLASS; i++)
1052:STM32F411/Middlewares/ST/STM32_USB_Device_Library/Core/Src/usbd_core.c ****   {
1053:STM32F411/Middlewares/ST/STM32_USB_Device_Library/Core/Src/usbd_core.c ****     /* Check if current class is in use */
1054:STM32F411/Middlewares/ST/STM32_USB_Device_Library/Core/Src/usbd_core.c ****     if ((pdev->tclasslist[i].Active) == 1U)
1055:STM32F411/Middlewares/ST/STM32_USB_Device_Library/Core/Src/usbd_core.c ****     {
1056:STM32F411/Middlewares/ST/STM32_USB_Device_Library/Core/Src/usbd_core.c ****       /* Parse all interfaces listed in the current class */
ARM GAS  /tmp/cc9vlpLu.s 			page 39


1057:STM32F411/Middlewares/ST/STM32_USB_Device_Library/Core/Src/usbd_core.c ****       for (uint32_t j = 0U; j < pdev->tclasslist[i].NumIf; j++)
1058:STM32F411/Middlewares/ST/STM32_USB_Device_Library/Core/Src/usbd_core.c ****       {
1059:STM32F411/Middlewares/ST/STM32_USB_Device_Library/Core/Src/usbd_core.c ****         /* Check if requested Interface matches the current class interface */
1060:STM32F411/Middlewares/ST/STM32_USB_Device_Library/Core/Src/usbd_core.c ****         if (pdev->tclasslist[i].Ifs[j] == index)
1061:STM32F411/Middlewares/ST/STM32_USB_Device_Library/Core/Src/usbd_core.c ****         {
1062:STM32F411/Middlewares/ST/STM32_USB_Device_Library/Core/Src/usbd_core.c ****           if (pdev->pClass[i]->Setup != NULL)
1063:STM32F411/Middlewares/ST/STM32_USB_Device_Library/Core/Src/usbd_core.c ****           {
1064:STM32F411/Middlewares/ST/STM32_USB_Device_Library/Core/Src/usbd_core.c ****             return (uint8_t)i;
1065:STM32F411/Middlewares/ST/STM32_USB_Device_Library/Core/Src/usbd_core.c ****           }
1066:STM32F411/Middlewares/ST/STM32_USB_Device_Library/Core/Src/usbd_core.c ****         }
1067:STM32F411/Middlewares/ST/STM32_USB_Device_Library/Core/Src/usbd_core.c ****       }
1068:STM32F411/Middlewares/ST/STM32_USB_Device_Library/Core/Src/usbd_core.c ****     }
1069:STM32F411/Middlewares/ST/STM32_USB_Device_Library/Core/Src/usbd_core.c ****   }
1070:STM32F411/Middlewares/ST/STM32_USB_Device_Library/Core/Src/usbd_core.c **** 
1071:STM32F411/Middlewares/ST/STM32_USB_Device_Library/Core/Src/usbd_core.c ****   return 0xFFU;
1072:STM32F411/Middlewares/ST/STM32_USB_Device_Library/Core/Src/usbd_core.c **** #else
1073:STM32F411/Middlewares/ST/STM32_USB_Device_Library/Core/Src/usbd_core.c ****   UNUSED(pdev);
 1084              		.loc 1 1073 3 view .LVU298
1074:STM32F411/Middlewares/ST/STM32_USB_Device_Library/Core/Src/usbd_core.c ****   UNUSED(index);
 1085              		.loc 1 1074 3 view .LVU299
1075:STM32F411/Middlewares/ST/STM32_USB_Device_Library/Core/Src/usbd_core.c **** 
1076:STM32F411/Middlewares/ST/STM32_USB_Device_Library/Core/Src/usbd_core.c ****   return 0x00U;
 1086              		.loc 1 1076 3 view .LVU300
1077:STM32F411/Middlewares/ST/STM32_USB_Device_Library/Core/Src/usbd_core.c **** #endif /* USE_USBD_COMPOSITE */
1078:STM32F411/Middlewares/ST/STM32_USB_Device_Library/Core/Src/usbd_core.c **** }
 1087              		.loc 1 1078 1 is_stmt 0 view .LVU301
 1088 0000 0020     		movs	r0, #0
 1089              	.LVL89:
 1090              		.loc 1 1078 1 view .LVU302
 1091 0002 7047     		bx	lr
 1092              		.cfi_endproc
 1093              	.LFE158:
 1095              		.section	.text.USBD_CoreFindEP,"ax",%progbits
 1096              		.align	1
 1097              		.global	USBD_CoreFindEP
 1098              		.syntax unified
 1099              		.thumb
 1100              		.thumb_func
 1102              	USBD_CoreFindEP:
 1103              	.LVL90:
 1104              	.LFB159:
1079:STM32F411/Middlewares/ST/STM32_USB_Device_Library/Core/Src/usbd_core.c **** 
1080:STM32F411/Middlewares/ST/STM32_USB_Device_Library/Core/Src/usbd_core.c **** /**
1081:STM32F411/Middlewares/ST/STM32_USB_Device_Library/Core/Src/usbd_core.c ****   * @brief  USBD_CoreFindEP
1082:STM32F411/Middlewares/ST/STM32_USB_Device_Library/Core/Src/usbd_core.c ****   *         return the class index relative to the selected endpoint
1083:STM32F411/Middlewares/ST/STM32_USB_Device_Library/Core/Src/usbd_core.c ****   * @param  pdev: device instance
1084:STM32F411/Middlewares/ST/STM32_USB_Device_Library/Core/Src/usbd_core.c ****   * @param  index : selected endpoint number
1085:STM32F411/Middlewares/ST/STM32_USB_Device_Library/Core/Src/usbd_core.c ****   * @retval index of the class using the selected endpoint number. 0xFF if no class found.
1086:STM32F411/Middlewares/ST/STM32_USB_Device_Library/Core/Src/usbd_core.c ****   */
1087:STM32F411/Middlewares/ST/STM32_USB_Device_Library/Core/Src/usbd_core.c **** uint8_t USBD_CoreFindEP(USBD_HandleTypeDef *pdev, uint8_t index)
1088:STM32F411/Middlewares/ST/STM32_USB_Device_Library/Core/Src/usbd_core.c **** {
 1105              		.loc 1 1088 1 is_stmt 1 view -0
 1106              		.cfi_startproc
 1107              		@ args = 0, pretend = 0, frame = 0
 1108              		@ frame_needed = 0, uses_anonymous_args = 0
 1109              		@ link register save eliminated.
1089:STM32F411/Middlewares/ST/STM32_USB_Device_Library/Core/Src/usbd_core.c **** #ifdef USE_USBD_COMPOSITE
ARM GAS  /tmp/cc9vlpLu.s 			page 40


1090:STM32F411/Middlewares/ST/STM32_USB_Device_Library/Core/Src/usbd_core.c ****   /* Parse the table of classes in use */
1091:STM32F411/Middlewares/ST/STM32_USB_Device_Library/Core/Src/usbd_core.c ****   for (uint32_t i = 0U; i < USBD_MAX_SUPPORTED_CLASS; i++)
1092:STM32F411/Middlewares/ST/STM32_USB_Device_Library/Core/Src/usbd_core.c ****   {
1093:STM32F411/Middlewares/ST/STM32_USB_Device_Library/Core/Src/usbd_core.c ****     /* Check if current class is in use */
1094:STM32F411/Middlewares/ST/STM32_USB_Device_Library/Core/Src/usbd_core.c ****     if ((pdev->tclasslist[i].Active) == 1U)
1095:STM32F411/Middlewares/ST/STM32_USB_Device_Library/Core/Src/usbd_core.c ****     {
1096:STM32F411/Middlewares/ST/STM32_USB_Device_Library/Core/Src/usbd_core.c ****       /* Parse all endpoints listed in the current class */
1097:STM32F411/Middlewares/ST/STM32_USB_Device_Library/Core/Src/usbd_core.c ****       for (uint32_t j = 0U; j < pdev->tclasslist[i].NumEps; j++)
1098:STM32F411/Middlewares/ST/STM32_USB_Device_Library/Core/Src/usbd_core.c ****       {
1099:STM32F411/Middlewares/ST/STM32_USB_Device_Library/Core/Src/usbd_core.c ****         /* Check if requested endpoint matches the current class endpoint */
1100:STM32F411/Middlewares/ST/STM32_USB_Device_Library/Core/Src/usbd_core.c ****         if (pdev->tclasslist[i].Eps[j].add == index)
1101:STM32F411/Middlewares/ST/STM32_USB_Device_Library/Core/Src/usbd_core.c ****         {
1102:STM32F411/Middlewares/ST/STM32_USB_Device_Library/Core/Src/usbd_core.c ****           if (pdev->pClass[i]->Setup != NULL)
1103:STM32F411/Middlewares/ST/STM32_USB_Device_Library/Core/Src/usbd_core.c ****           {
1104:STM32F411/Middlewares/ST/STM32_USB_Device_Library/Core/Src/usbd_core.c ****             return (uint8_t)i;
1105:STM32F411/Middlewares/ST/STM32_USB_Device_Library/Core/Src/usbd_core.c ****           }
1106:STM32F411/Middlewares/ST/STM32_USB_Device_Library/Core/Src/usbd_core.c ****         }
1107:STM32F411/Middlewares/ST/STM32_USB_Device_Library/Core/Src/usbd_core.c ****       }
1108:STM32F411/Middlewares/ST/STM32_USB_Device_Library/Core/Src/usbd_core.c ****     }
1109:STM32F411/Middlewares/ST/STM32_USB_Device_Library/Core/Src/usbd_core.c ****   }
1110:STM32F411/Middlewares/ST/STM32_USB_Device_Library/Core/Src/usbd_core.c **** 
1111:STM32F411/Middlewares/ST/STM32_USB_Device_Library/Core/Src/usbd_core.c ****   return 0xFFU;
1112:STM32F411/Middlewares/ST/STM32_USB_Device_Library/Core/Src/usbd_core.c **** #else
1113:STM32F411/Middlewares/ST/STM32_USB_Device_Library/Core/Src/usbd_core.c ****   UNUSED(pdev);
 1110              		.loc 1 1113 3 view .LVU304
1114:STM32F411/Middlewares/ST/STM32_USB_Device_Library/Core/Src/usbd_core.c ****   UNUSED(index);
 1111              		.loc 1 1114 3 view .LVU305
1115:STM32F411/Middlewares/ST/STM32_USB_Device_Library/Core/Src/usbd_core.c **** 
1116:STM32F411/Middlewares/ST/STM32_USB_Device_Library/Core/Src/usbd_core.c ****   return 0x00U;
 1112              		.loc 1 1116 3 view .LVU306
1117:STM32F411/Middlewares/ST/STM32_USB_Device_Library/Core/Src/usbd_core.c **** #endif /* USE_USBD_COMPOSITE */
1118:STM32F411/Middlewares/ST/STM32_USB_Device_Library/Core/Src/usbd_core.c **** }
 1113              		.loc 1 1118 1 is_stmt 0 view .LVU307
 1114 0000 0020     		movs	r0, #0
 1115              	.LVL91:
 1116              		.loc 1 1118 1 view .LVU308
 1117 0002 7047     		bx	lr
 1118              		.cfi_endproc
 1119              	.LFE159:
 1121              		.section	.text.USBD_LL_DataOutStage,"ax",%progbits
 1122              		.align	1
 1123              		.global	USBD_LL_DataOutStage
 1124              		.syntax unified
 1125              		.thumb
 1126              		.thumb_func
 1128              	USBD_LL_DataOutStage:
 1129              	.LVL92:
 1130              	.LFB147:
 594:STM32F411/Middlewares/ST/STM32_USB_Device_Library/Core/Src/usbd_core.c ****   USBD_EndpointTypeDef *pep;
 1131              		.loc 1 594 1 is_stmt 1 view -0
 1132              		.cfi_startproc
 1133              		@ args = 0, pretend = 0, frame = 0
 1134              		@ frame_needed = 0, uses_anonymous_args = 0
 594:STM32F411/Middlewares/ST/STM32_USB_Device_Library/Core/Src/usbd_core.c ****   USBD_EndpointTypeDef *pep;
 1135              		.loc 1 594 1 is_stmt 0 view .LVU310
 1136 0000 38B5     		push	{r3, r4, r5, lr}
 1137              	.LCFI16:
ARM GAS  /tmp/cc9vlpLu.s 			page 41


 1138              		.cfi_def_cfa_offset 16
 1139              		.cfi_offset 3, -16
 1140              		.cfi_offset 4, -12
 1141              		.cfi_offset 5, -8
 1142              		.cfi_offset 14, -4
 1143 0002 0446     		mov	r4, r0
 595:STM32F411/Middlewares/ST/STM32_USB_Device_Library/Core/Src/usbd_core.c ****   USBD_StatusTypeDef ret = USBD_OK;
 1144              		.loc 1 595 3 is_stmt 1 view .LVU311
 596:STM32F411/Middlewares/ST/STM32_USB_Device_Library/Core/Src/usbd_core.c ****   uint8_t idx;
 1145              		.loc 1 596 3 view .LVU312
 1146              	.LVL93:
 597:STM32F411/Middlewares/ST/STM32_USB_Device_Library/Core/Src/usbd_core.c **** 
 1147              		.loc 1 597 3 view .LVU313
 599:STM32F411/Middlewares/ST/STM32_USB_Device_Library/Core/Src/usbd_core.c ****   {
 1148              		.loc 1 599 3 view .LVU314
 599:STM32F411/Middlewares/ST/STM32_USB_Device_Library/Core/Src/usbd_core.c ****   {
 1149              		.loc 1 599 6 is_stmt 0 view .LVU315
 1150 0004 0D46     		mov	r5, r1
 1151 0006 0029     		cmp	r1, #0
 1152 0008 42D1     		bne	.L79
 1153 000a 1346     		mov	r3, r2
 601:STM32F411/Middlewares/ST/STM32_USB_Device_Library/Core/Src/usbd_core.c **** 
 1154              		.loc 1 601 5 is_stmt 1 view .LVU316
 1155              	.LVL94:
 603:STM32F411/Middlewares/ST/STM32_USB_Device_Library/Core/Src/usbd_core.c ****     {
 1156              		.loc 1 603 5 view .LVU317
 603:STM32F411/Middlewares/ST/STM32_USB_Device_Library/Core/Src/usbd_core.c ****     {
 1157              		.loc 1 603 13 is_stmt 0 view .LVU318
 1158 000c D0F89422 		ldr	r2, [r0, #660]
 1159              	.LVL95:
 603:STM32F411/Middlewares/ST/STM32_USB_Device_Library/Core/Src/usbd_core.c ****     {
 1160              		.loc 1 603 8 view .LVU319
 1161 0010 032A     		cmp	r2, #3
 1162 0012 01D0     		beq	.L90
 676:STM32F411/Middlewares/ST/STM32_USB_Device_Library/Core/Src/usbd_core.c **** }
 1163              		.loc 1 676 10 view .LVU320
 1164 0014 0846     		mov	r0, r1
 1165              	.LVL96:
 1166              	.L80:
 677:STM32F411/Middlewares/ST/STM32_USB_Device_Library/Core/Src/usbd_core.c **** 
 1167              		.loc 1 677 1 view .LVU321
 1168 0016 38BD     		pop	{r3, r4, r5, pc}
 1169              	.LVL97:
 1170              	.L90:
 605:STM32F411/Middlewares/ST/STM32_USB_Device_Library/Core/Src/usbd_core.c ****       {
 1171              		.loc 1 605 7 is_stmt 1 view .LVU322
 605:STM32F411/Middlewares/ST/STM32_USB_Device_Library/Core/Src/usbd_core.c ****       {
 1172              		.loc 1 605 14 is_stmt 0 view .LVU323
 1173 0018 D0F85C11 		ldr	r1, [r0, #348]
 1174              	.LVL98:
 605:STM32F411/Middlewares/ST/STM32_USB_Device_Library/Core/Src/usbd_core.c ****       {
 1175              		.loc 1 605 32 view .LVU324
 1176 001c D0F86021 		ldr	r2, [r0, #352]
 605:STM32F411/Middlewares/ST/STM32_USB_Device_Library/Core/Src/usbd_core.c ****       {
 1177              		.loc 1 605 10 view .LVU325
 1178 0020 9142     		cmp	r1, r2
 1179 0022 09D8     		bhi	.L91
ARM GAS  /tmp/cc9vlpLu.s 			page 42


 614:STM32F411/Middlewares/ST/STM32_USB_Device_Library/Core/Src/usbd_core.c ****         {
 1180              		.loc 1 614 9 is_stmt 1 view .LVU326
 614:STM32F411/Middlewares/ST/STM32_USB_Device_Library/Core/Src/usbd_core.c ****         {
 1181              		.loc 1 614 30 is_stmt 0 view .LVU327
 1182 0024 90F8AA32 		ldrb	r3, [r0, #682]	@ zero_extendqisi2
 1183              	.LVL99:
 614:STM32F411/Middlewares/ST/STM32_USB_Device_Library/Core/Src/usbd_core.c ****         {
 1184              		.loc 1 614 30 view .LVU328
 1185 0028 03F01F03 		and	r3, r3, #31
 614:STM32F411/Middlewares/ST/STM32_USB_Device_Library/Core/Src/usbd_core.c ****         {
 1186              		.loc 1 614 9 view .LVU329
 1187 002c 012B     		cmp	r3, #1
 1188 002e 0ED0     		beq	.L82
 1189 0030 022B     		cmp	r3, #2
 1190 0032 1BD0     		beq	.L83
 1191 0034 2846     		mov	r0, r5
 1192              	.LVL100:
 614:STM32F411/Middlewares/ST/STM32_USB_Device_Library/Core/Src/usbd_core.c ****         {
 1193              		.loc 1 614 9 view .LVU330
 1194 0036 0FE0     		b	.L84
 1195              	.LVL101:
 1196              	.L91:
 607:STM32F411/Middlewares/ST/STM32_USB_Device_Library/Core/Src/usbd_core.c **** 
 1197              		.loc 1 607 9 is_stmt 1 view .LVU331
 607:STM32F411/Middlewares/ST/STM32_USB_Device_Library/Core/Src/usbd_core.c **** 
 1198              		.loc 1 607 25 is_stmt 0 view .LVU332
 1199 0038 891A     		subs	r1, r1, r2
 1200 003a C0F85C11 		str	r1, [r0, #348]
 609:STM32F411/Middlewares/ST/STM32_USB_Device_Library/Core/Src/usbd_core.c ****       }
 1201              		.loc 1 609 9 is_stmt 1 view .LVU333
 609:STM32F411/Middlewares/ST/STM32_USB_Device_Library/Core/Src/usbd_core.c ****       }
 1202              		.loc 1 609 15 is_stmt 0 view .LVU334
 1203 003e 8A42     		cmp	r2, r1
 1204 0040 28BF     		it	cs
 1205 0042 0A46     		movcs	r2, r1
 1206 0044 1946     		mov	r1, r3
 1207 0046 FFF7FEFF 		bl	USBD_CtlContinueRx
 1208              	.LVL102:
 676:STM32F411/Middlewares/ST/STM32_USB_Device_Library/Core/Src/usbd_core.c **** }
 1209              		.loc 1 676 10 view .LVU335
 1210 004a 2846     		mov	r0, r5
 1211 004c E3E7     		b	.L80
 1212              	.LVL103:
 1213              	.L82:
 623:STM32F411/Middlewares/ST/STM32_USB_Device_Library/Core/Src/usbd_core.c ****             break;
 1214              		.loc 1 623 13 is_stmt 1 view .LVU336
 623:STM32F411/Middlewares/ST/STM32_USB_Device_Library/Core/Src/usbd_core.c ****             break;
 1215              		.loc 1 623 19 is_stmt 0 view .LVU337
 1216 004e 90F8AE12 		ldrb	r1, [r0, #686]	@ zero_extendqisi2
 1217 0052 FFF7FEFF 		bl	USBD_CoreFindIF
 1218              	.LVL104:
 624:STM32F411/Middlewares/ST/STM32_USB_Device_Library/Core/Src/usbd_core.c **** 
 1219              		.loc 1 624 13 is_stmt 1 view .LVU338
 1220              	.L85:
 636:STM32F411/Middlewares/ST/STM32_USB_Device_Library/Core/Src/usbd_core.c ****         {
 1221              		.loc 1 636 9 view .LVU339
 636:STM32F411/Middlewares/ST/STM32_USB_Device_Library/Core/Src/usbd_core.c ****         {
ARM GAS  /tmp/cc9vlpLu.s 			page 43


 1222              		.loc 1 636 12 is_stmt 0 view .LVU340
 1223 0056 20B9     		cbnz	r0, .L86
 1224              	.LVL105:
 1225              	.L84:
 639:STM32F411/Middlewares/ST/STM32_USB_Device_Library/Core/Src/usbd_core.c ****           {
 1226              		.loc 1 639 11 is_stmt 1 view .LVU341
 639:STM32F411/Middlewares/ST/STM32_USB_Device_Library/Core/Src/usbd_core.c ****           {
 1227              		.loc 1 639 19 is_stmt 0 view .LVU342
 1228 0058 94F89C32 		ldrb	r3, [r4, #668]	@ zero_extendqisi2
 1229 005c DBB2     		uxtb	r3, r3
 639:STM32F411/Middlewares/ST/STM32_USB_Device_Library/Core/Src/usbd_core.c ****           {
 1230              		.loc 1 639 14 view .LVU343
 1231 005e 032B     		cmp	r3, #3
 1232 0060 09D0     		beq	.L92
 1233              	.L86:
 649:STM32F411/Middlewares/ST/STM32_USB_Device_Library/Core/Src/usbd_core.c ****       }
 1234              		.loc 1 649 9 is_stmt 1 view .LVU344
 649:STM32F411/Middlewares/ST/STM32_USB_Device_Library/Core/Src/usbd_core.c ****       }
 1235              		.loc 1 649 15 is_stmt 0 view .LVU345
 1236 0062 2046     		mov	r0, r4
 1237 0064 FFF7FEFF 		bl	USBD_CtlSendStatus
 1238              	.LVL106:
 676:STM32F411/Middlewares/ST/STM32_USB_Device_Library/Core/Src/usbd_core.c **** }
 1239              		.loc 1 676 10 view .LVU346
 1240 0068 2846     		mov	r0, r5
 1241 006a D4E7     		b	.L80
 1242              	.LVL107:
 1243              	.L83:
 627:STM32F411/Middlewares/ST/STM32_USB_Device_Library/Core/Src/usbd_core.c ****             break;
 1244              		.loc 1 627 13 is_stmt 1 view .LVU347
 627:STM32F411/Middlewares/ST/STM32_USB_Device_Library/Core/Src/usbd_core.c ****             break;
 1245              		.loc 1 627 19 is_stmt 0 view .LVU348
 1246 006c 90F8AE12 		ldrb	r1, [r0, #686]	@ zero_extendqisi2
 1247 0070 FFF7FEFF 		bl	USBD_CoreFindEP
 1248              	.LVL108:
 628:STM32F411/Middlewares/ST/STM32_USB_Device_Library/Core/Src/usbd_core.c **** 
 1249              		.loc 1 628 13 is_stmt 1 view .LVU349
 1250 0074 EFE7     		b	.L85
 1251              	.LVL109:
 1252              	.L92:
 641:STM32F411/Middlewares/ST/STM32_USB_Device_Library/Core/Src/usbd_core.c ****             {
 1253              		.loc 1 641 13 view .LVU350
 641:STM32F411/Middlewares/ST/STM32_USB_Device_Library/Core/Src/usbd_core.c ****             {
 1254              		.loc 1 641 29 is_stmt 0 view .LVU351
 1255 0076 00F1AE03 		add	r3, r0, #174
 1256 007a 54F82330 		ldr	r3, [r4, r3, lsl #2]
 641:STM32F411/Middlewares/ST/STM32_USB_Device_Library/Core/Src/usbd_core.c ****             {
 1257              		.loc 1 641 34 view .LVU352
 1258 007e 1A69     		ldr	r2, [r3, #16]
 641:STM32F411/Middlewares/ST/STM32_USB_Device_Library/Core/Src/usbd_core.c ****             {
 1259              		.loc 1 641 16 view .LVU353
 1260 0080 002A     		cmp	r2, #0
 1261 0082 EED0     		beq	.L86
 643:STM32F411/Middlewares/ST/STM32_USB_Device_Library/Core/Src/usbd_core.c ****               pdev->pClass[idx]->EP0_RxReady(pdev);
 1262              		.loc 1 643 15 is_stmt 1 view .LVU354
 643:STM32F411/Middlewares/ST/STM32_USB_Device_Library/Core/Src/usbd_core.c ****               pdev->pClass[idx]->EP0_RxReady(pdev);
 1263              		.loc 1 643 29 is_stmt 0 view .LVU355
ARM GAS  /tmp/cc9vlpLu.s 			page 44


 1264 0084 C4F8D402 		str	r0, [r4, #724]
 644:STM32F411/Middlewares/ST/STM32_USB_Device_Library/Core/Src/usbd_core.c ****             }
 1265              		.loc 1 644 15 is_stmt 1 view .LVU356
 644:STM32F411/Middlewares/ST/STM32_USB_Device_Library/Core/Src/usbd_core.c ****             }
 1266              		.loc 1 644 32 is_stmt 0 view .LVU357
 1267 0088 1B69     		ldr	r3, [r3, #16]
 644:STM32F411/Middlewares/ST/STM32_USB_Device_Library/Core/Src/usbd_core.c ****             }
 1268              		.loc 1 644 15 view .LVU358
 1269 008a 2046     		mov	r0, r4
 1270 008c 9847     		blx	r3
 1271              	.LVL110:
 1272 008e E8E7     		b	.L86
 1273              	.LVL111:
 1274              	.L79:
 656:STM32F411/Middlewares/ST/STM32_USB_Device_Library/Core/Src/usbd_core.c **** 
 1275              		.loc 1 656 5 is_stmt 1 view .LVU359
 656:STM32F411/Middlewares/ST/STM32_USB_Device_Library/Core/Src/usbd_core.c **** 
 1276              		.loc 1 656 11 is_stmt 0 view .LVU360
 1277 0090 01F07F01 		and	r1, r1, #127
 1278              	.LVL112:
 656:STM32F411/Middlewares/ST/STM32_USB_Device_Library/Core/Src/usbd_core.c **** 
 1279              		.loc 1 656 11 view .LVU361
 1280 0094 FFF7FEFF 		bl	USBD_CoreFindEP
 1281              	.LVL113:
 658:STM32F411/Middlewares/ST/STM32_USB_Device_Library/Core/Src/usbd_core.c ****     {
 1282              		.loc 1 658 5 is_stmt 1 view .LVU362
 658:STM32F411/Middlewares/ST/STM32_USB_Device_Library/Core/Src/usbd_core.c ****     {
 1283              		.loc 1 658 8 is_stmt 0 view .LVU363
 1284 0098 90B9     		cbnz	r0, .L88
 661:STM32F411/Middlewares/ST/STM32_USB_Device_Library/Core/Src/usbd_core.c ****       {
 1285              		.loc 1 661 7 is_stmt 1 view .LVU364
 661:STM32F411/Middlewares/ST/STM32_USB_Device_Library/Core/Src/usbd_core.c ****       {
 1286              		.loc 1 661 15 is_stmt 0 view .LVU365
 1287 009a 94F89C32 		ldrb	r3, [r4, #668]	@ zero_extendqisi2
 1288 009e DBB2     		uxtb	r3, r3
 661:STM32F411/Middlewares/ST/STM32_USB_Device_Library/Core/Src/usbd_core.c ****       {
 1289              		.loc 1 661 10 view .LVU366
 1290 00a0 032B     		cmp	r3, #3
 1291 00a2 B8D1     		bne	.L80
 663:STM32F411/Middlewares/ST/STM32_USB_Device_Library/Core/Src/usbd_core.c ****         {
 1292              		.loc 1 663 9 is_stmt 1 view .LVU367
 663:STM32F411/Middlewares/ST/STM32_USB_Device_Library/Core/Src/usbd_core.c ****         {
 1293              		.loc 1 663 25 is_stmt 0 view .LVU368
 1294 00a4 00F1AE03 		add	r3, r0, #174
 1295 00a8 54F82330 		ldr	r3, [r4, r3, lsl #2]
 663:STM32F411/Middlewares/ST/STM32_USB_Device_Library/Core/Src/usbd_core.c ****         {
 1296              		.loc 1 663 30 view .LVU369
 1297 00ac 9A69     		ldr	r2, [r3, #24]
 663:STM32F411/Middlewares/ST/STM32_USB_Device_Library/Core/Src/usbd_core.c ****         {
 1298              		.loc 1 663 12 view .LVU370
 1299 00ae 002A     		cmp	r2, #0
 1300 00b0 B1D0     		beq	.L80
 665:STM32F411/Middlewares/ST/STM32_USB_Device_Library/Core/Src/usbd_core.c ****           ret = (USBD_StatusTypeDef)pdev->pClass[idx]->DataOut(pdev, epnum);
 1301              		.loc 1 665 11 is_stmt 1 view .LVU371
 665:STM32F411/Middlewares/ST/STM32_USB_Device_Library/Core/Src/usbd_core.c ****           ret = (USBD_StatusTypeDef)pdev->pClass[idx]->DataOut(pdev, epnum);
 1302              		.loc 1 665 25 is_stmt 0 view .LVU372
 1303 00b2 C4F8D402 		str	r0, [r4, #724]
ARM GAS  /tmp/cc9vlpLu.s 			page 45


 666:STM32F411/Middlewares/ST/STM32_USB_Device_Library/Core/Src/usbd_core.c ****         }
 1304              		.loc 1 666 11 is_stmt 1 view .LVU373
 666:STM32F411/Middlewares/ST/STM32_USB_Device_Library/Core/Src/usbd_core.c ****         }
 1305              		.loc 1 666 54 is_stmt 0 view .LVU374
 1306 00b6 9B69     		ldr	r3, [r3, #24]
 666:STM32F411/Middlewares/ST/STM32_USB_Device_Library/Core/Src/usbd_core.c ****         }
 1307              		.loc 1 666 37 view .LVU375
 1308 00b8 2946     		mov	r1, r5
 1309 00ba 2046     		mov	r0, r4
 1310              	.LVL114:
 666:STM32F411/Middlewares/ST/STM32_USB_Device_Library/Core/Src/usbd_core.c ****         }
 1311              		.loc 1 666 37 view .LVU376
 1312 00bc 9847     		blx	r3
 1313              	.LVL115:
 669:STM32F411/Middlewares/ST/STM32_USB_Device_Library/Core/Src/usbd_core.c ****       {
 1314              		.loc 1 669 7 is_stmt 1 view .LVU377
 1315 00be AAE7     		b	.L80
 1316              	.LVL116:
 1317              	.L88:
 676:STM32F411/Middlewares/ST/STM32_USB_Device_Library/Core/Src/usbd_core.c **** }
 1318              		.loc 1 676 10 is_stmt 0 view .LVU378
 1319 00c0 0020     		movs	r0, #0
 1320              	.LVL117:
 676:STM32F411/Middlewares/ST/STM32_USB_Device_Library/Core/Src/usbd_core.c **** }
 1321              		.loc 1 676 10 view .LVU379
 1322 00c2 A8E7     		b	.L80
 1323              		.cfi_endproc
 1324              	.LFE147:
 1326              		.section	.text.USBD_LL_DataInStage,"ax",%progbits
 1327              		.align	1
 1328              		.global	USBD_LL_DataInStage
 1329              		.syntax unified
 1330              		.thumb
 1331              		.thumb_func
 1333              	USBD_LL_DataInStage:
 1334              	.LVL118:
 1335              	.LFB148:
 688:STM32F411/Middlewares/ST/STM32_USB_Device_Library/Core/Src/usbd_core.c ****   USBD_EndpointTypeDef *pep;
 1336              		.loc 1 688 1 is_stmt 1 view -0
 1337              		.cfi_startproc
 1338              		@ args = 0, pretend = 0, frame = 0
 1339              		@ frame_needed = 0, uses_anonymous_args = 0
 688:STM32F411/Middlewares/ST/STM32_USB_Device_Library/Core/Src/usbd_core.c ****   USBD_EndpointTypeDef *pep;
 1340              		.loc 1 688 1 is_stmt 0 view .LVU381
 1341 0000 38B5     		push	{r3, r4, r5, lr}
 1342              	.LCFI17:
 1343              		.cfi_def_cfa_offset 16
 1344              		.cfi_offset 3, -16
 1345              		.cfi_offset 4, -12
 1346              		.cfi_offset 5, -8
 1347              		.cfi_offset 14, -4
 1348 0002 0446     		mov	r4, r0
 689:STM32F411/Middlewares/ST/STM32_USB_Device_Library/Core/Src/usbd_core.c ****   USBD_StatusTypeDef ret;
 1349              		.loc 1 689 3 is_stmt 1 view .LVU382
 690:STM32F411/Middlewares/ST/STM32_USB_Device_Library/Core/Src/usbd_core.c ****   uint8_t idx;
 1350              		.loc 1 690 3 view .LVU383
 691:STM32F411/Middlewares/ST/STM32_USB_Device_Library/Core/Src/usbd_core.c **** 
ARM GAS  /tmp/cc9vlpLu.s 			page 46


 1351              		.loc 1 691 3 view .LVU384
 693:STM32F411/Middlewares/ST/STM32_USB_Device_Library/Core/Src/usbd_core.c ****   {
 1352              		.loc 1 693 3 view .LVU385
 693:STM32F411/Middlewares/ST/STM32_USB_Device_Library/Core/Src/usbd_core.c ****   {
 1353              		.loc 1 693 6 is_stmt 0 view .LVU386
 1354 0004 0D46     		mov	r5, r1
 1355 0006 0029     		cmp	r1, #0
 1356 0008 4BD1     		bne	.L94
 1357 000a 1346     		mov	r3, r2
 695:STM32F411/Middlewares/ST/STM32_USB_Device_Library/Core/Src/usbd_core.c **** 
 1358              		.loc 1 695 5 is_stmt 1 view .LVU387
 1359              	.LVL119:
 697:STM32F411/Middlewares/ST/STM32_USB_Device_Library/Core/Src/usbd_core.c ****     {
 1360              		.loc 1 697 5 view .LVU388
 697:STM32F411/Middlewares/ST/STM32_USB_Device_Library/Core/Src/usbd_core.c ****     {
 1361              		.loc 1 697 13 is_stmt 0 view .LVU389
 1362 000c D0F89422 		ldr	r2, [r0, #660]
 1363              	.LVL120:
 697:STM32F411/Middlewares/ST/STM32_USB_Device_Library/Core/Src/usbd_core.c ****     {
 1364              		.loc 1 697 8 view .LVU390
 1365 0010 022A     		cmp	r2, #2
 1366 0012 07D0     		beq	.L102
 1367              	.LVL121:
 1368              	.L95:
 737:STM32F411/Middlewares/ST/STM32_USB_Device_Library/Core/Src/usbd_core.c ****     {
 1369              		.loc 1 737 5 is_stmt 1 view .LVU391
 737:STM32F411/Middlewares/ST/STM32_USB_Device_Library/Core/Src/usbd_core.c ****     {
 1370              		.loc 1 737 13 is_stmt 0 view .LVU392
 1371 0014 94F8A002 		ldrb	r0, [r4, #672]	@ zero_extendqisi2
 737:STM32F411/Middlewares/ST/STM32_USB_Device_Library/Core/Src/usbd_core.c ****     {
 1372              		.loc 1 737 8 view .LVU393
 1373 0018 18B1     		cbz	r0, .L99
 739:STM32F411/Middlewares/ST/STM32_USB_Device_Library/Core/Src/usbd_core.c ****       pdev->dev_test_mode = 0U;
 1374              		.loc 1 739 7 is_stmt 1 view .LVU394
 740:STM32F411/Middlewares/ST/STM32_USB_Device_Library/Core/Src/usbd_core.c ****     }
 1375              		.loc 1 740 7 view .LVU395
 740:STM32F411/Middlewares/ST/STM32_USB_Device_Library/Core/Src/usbd_core.c ****     }
 1376              		.loc 1 740 27 is_stmt 0 view .LVU396
 1377 001a 0023     		movs	r3, #0
 1378 001c 84F8A032 		strb	r3, [r4, #672]
 767:STM32F411/Middlewares/ST/STM32_USB_Device_Library/Core/Src/usbd_core.c **** }
 1379              		.loc 1 767 10 view .LVU397
 1380 0020 2846     		mov	r0, r5
 1381              	.LVL122:
 1382              	.L99:
 768:STM32F411/Middlewares/ST/STM32_USB_Device_Library/Core/Src/usbd_core.c **** 
 1383              		.loc 1 768 1 view .LVU398
 1384 0022 38BD     		pop	{r3, r4, r5, pc}
 1385              	.LVL123:
 1386              	.L102:
 699:STM32F411/Middlewares/ST/STM32_USB_Device_Library/Core/Src/usbd_core.c ****       {
 1387              		.loc 1 699 7 is_stmt 1 view .LVU399
 699:STM32F411/Middlewares/ST/STM32_USB_Device_Library/Core/Src/usbd_core.c ****       {
 1388              		.loc 1 699 14 is_stmt 0 view .LVU400
 1389 0024 C269     		ldr	r2, [r0, #28]
 699:STM32F411/Middlewares/ST/STM32_USB_Device_Library/Core/Src/usbd_core.c ****       {
 1390              		.loc 1 699 32 view .LVU401
ARM GAS  /tmp/cc9vlpLu.s 			page 47


 1391 0026 016A     		ldr	r1, [r0, #32]
 1392              	.LVL124:
 699:STM32F411/Middlewares/ST/STM32_USB_Device_Library/Core/Src/usbd_core.c ****       {
 1393              		.loc 1 699 10 view .LVU402
 1394 0028 8A42     		cmp	r2, r1
 1395 002a 0ED8     		bhi	.L103
 711:STM32F411/Middlewares/ST/STM32_USB_Device_Library/Core/Src/usbd_core.c ****             (pep->total_length >= pep->maxpacket) &&
 1396              		.loc 1 711 9 is_stmt 1 view .LVU403
 711:STM32F411/Middlewares/ST/STM32_USB_Device_Library/Core/Src/usbd_core.c ****             (pep->total_length >= pep->maxpacket) &&
 1397              		.loc 1 711 12 is_stmt 0 view .LVU404
 1398 002c 8A42     		cmp	r2, r1
 1399 002e 18D0     		beq	.L104
 1400              	.LVL125:
 1401              	.L97:
 723:STM32F411/Middlewares/ST/STM32_USB_Device_Library/Core/Src/usbd_core.c ****           {
 1402              		.loc 1 723 11 is_stmt 1 view .LVU405
 723:STM32F411/Middlewares/ST/STM32_USB_Device_Library/Core/Src/usbd_core.c ****           {
 1403              		.loc 1 723 19 is_stmt 0 view .LVU406
 1404 0030 94F89C32 		ldrb	r3, [r4, #668]	@ zero_extendqisi2
 1405 0034 DBB2     		uxtb	r3, r3
 723:STM32F411/Middlewares/ST/STM32_USB_Device_Library/Core/Src/usbd_core.c ****           {
 1406              		.loc 1 723 14 view .LVU407
 1407 0036 032B     		cmp	r3, #3
 1408 0038 27D0     		beq	.L105
 1409              	.LVL126:
 1410              	.L98:
 731:STM32F411/Middlewares/ST/STM32_USB_Device_Library/Core/Src/usbd_core.c ****           (void)USBD_CtlReceiveStatus(pdev);
 1411              		.loc 1 731 11 is_stmt 1 view .LVU408
 731:STM32F411/Middlewares/ST/STM32_USB_Device_Library/Core/Src/usbd_core.c ****           (void)USBD_CtlReceiveStatus(pdev);
 1412              		.loc 1 731 17 is_stmt 0 view .LVU409
 1413 003a 8021     		movs	r1, #128
 1414 003c 2046     		mov	r0, r4
 1415 003e FFF7FEFF 		bl	USBD_LL_StallEP
 1416              	.LVL127:
 732:STM32F411/Middlewares/ST/STM32_USB_Device_Library/Core/Src/usbd_core.c ****         }
 1417              		.loc 1 732 11 is_stmt 1 view .LVU410
 732:STM32F411/Middlewares/ST/STM32_USB_Device_Library/Core/Src/usbd_core.c ****         }
 1418              		.loc 1 732 17 is_stmt 0 view .LVU411
 1419 0042 2046     		mov	r0, r4
 1420 0044 FFF7FEFF 		bl	USBD_CtlReceiveStatus
 1421              	.LVL128:
 1422 0048 E4E7     		b	.L95
 1423              	.LVL129:
 1424              	.L103:
 701:STM32F411/Middlewares/ST/STM32_USB_Device_Library/Core/Src/usbd_core.c **** 
 1425              		.loc 1 701 9 is_stmt 1 view .LVU412
 701:STM32F411/Middlewares/ST/STM32_USB_Device_Library/Core/Src/usbd_core.c **** 
 1426              		.loc 1 701 25 is_stmt 0 view .LVU413
 1427 004a 521A     		subs	r2, r2, r1
 1428 004c C261     		str	r2, [r0, #28]
 703:STM32F411/Middlewares/ST/STM32_USB_Device_Library/Core/Src/usbd_core.c **** 
 1429              		.loc 1 703 9 is_stmt 1 view .LVU414
 703:STM32F411/Middlewares/ST/STM32_USB_Device_Library/Core/Src/usbd_core.c **** 
 1430              		.loc 1 703 15 is_stmt 0 view .LVU415
 1431 004e 1946     		mov	r1, r3
 1432 0050 FFF7FEFF 		bl	USBD_CtlContinueSendData
 1433              	.LVL130:
ARM GAS  /tmp/cc9vlpLu.s 			page 48


 706:STM32F411/Middlewares/ST/STM32_USB_Device_Library/Core/Src/usbd_core.c ****       }
 1434              		.loc 1 706 9 is_stmt 1 view .LVU416
 706:STM32F411/Middlewares/ST/STM32_USB_Device_Library/Core/Src/usbd_core.c ****       }
 1435              		.loc 1 706 15 is_stmt 0 view .LVU417
 1436 0054 0023     		movs	r3, #0
 1437 0056 1A46     		mov	r2, r3
 1438 0058 1946     		mov	r1, r3
 1439 005a 2046     		mov	r0, r4
 1440 005c FFF7FEFF 		bl	USBD_LL_PrepareReceive
 1441              	.LVL131:
 1442 0060 D8E7     		b	.L95
 1443              	.LVL132:
 1444              	.L104:
 712:STM32F411/Middlewares/ST/STM32_USB_Device_Library/Core/Src/usbd_core.c ****             (pep->total_length < pdev->ep0_data_len))
 1445              		.loc 1 712 17 view .LVU418
 1446 0062 8369     		ldr	r3, [r0, #24]
 1447              	.LVL133:
 711:STM32F411/Middlewares/ST/STM32_USB_Device_Library/Core/Src/usbd_core.c ****             (pep->total_length >= pep->maxpacket) &&
 1448              		.loc 1 711 49 discriminator 1 view .LVU419
 1449 0064 9942     		cmp	r1, r3
 1450 0066 E3D8     		bhi	.L97
 713:STM32F411/Middlewares/ST/STM32_USB_Device_Library/Core/Src/usbd_core.c ****         {
 1451              		.loc 1 713 38 view .LVU420
 1452 0068 D0F89822 		ldr	r2, [r0, #664]
 712:STM32F411/Middlewares/ST/STM32_USB_Device_Library/Core/Src/usbd_core.c ****             (pep->total_length < pdev->ep0_data_len))
 1453              		.loc 1 712 51 view .LVU421
 1454 006c 9342     		cmp	r3, r2
 1455 006e DFD2     		bcs	.L97
 715:STM32F411/Middlewares/ST/STM32_USB_Device_Library/Core/Src/usbd_core.c ****           pdev->ep0_data_len = 0U;
 1456              		.loc 1 715 11 is_stmt 1 view .LVU422
 715:STM32F411/Middlewares/ST/STM32_USB_Device_Library/Core/Src/usbd_core.c ****           pdev->ep0_data_len = 0U;
 1457              		.loc 1 715 17 is_stmt 0 view .LVU423
 1458 0070 0022     		movs	r2, #0
 1459 0072 1146     		mov	r1, r2
 1460 0074 FFF7FEFF 		bl	USBD_CtlContinueSendData
 1461              	.LVL134:
 716:STM32F411/Middlewares/ST/STM32_USB_Device_Library/Core/Src/usbd_core.c **** 
 1462              		.loc 1 716 11 is_stmt 1 view .LVU424
 716:STM32F411/Middlewares/ST/STM32_USB_Device_Library/Core/Src/usbd_core.c **** 
 1463              		.loc 1 716 30 is_stmt 0 view .LVU425
 1464 0078 0021     		movs	r1, #0
 1465 007a C4F89812 		str	r1, [r4, #664]
 719:STM32F411/Middlewares/ST/STM32_USB_Device_Library/Core/Src/usbd_core.c ****         }
 1466              		.loc 1 719 11 is_stmt 1 view .LVU426
 719:STM32F411/Middlewares/ST/STM32_USB_Device_Library/Core/Src/usbd_core.c ****         }
 1467              		.loc 1 719 17 is_stmt 0 view .LVU427
 1468 007e 0B46     		mov	r3, r1
 1469 0080 0A46     		mov	r2, r1
 1470 0082 2046     		mov	r0, r4
 1471 0084 FFF7FEFF 		bl	USBD_LL_PrepareReceive
 1472              	.LVL135:
 719:STM32F411/Middlewares/ST/STM32_USB_Device_Library/Core/Src/usbd_core.c ****         }
 1473              		.loc 1 719 11 view .LVU428
 1474 0088 C4E7     		b	.L95
 1475              	.LVL136:
 1476              	.L105:
 725:STM32F411/Middlewares/ST/STM32_USB_Device_Library/Core/Src/usbd_core.c ****             {
ARM GAS  /tmp/cc9vlpLu.s 			page 49


 1477              		.loc 1 725 13 is_stmt 1 view .LVU429
 725:STM32F411/Middlewares/ST/STM32_USB_Device_Library/Core/Src/usbd_core.c ****             {
 1478              		.loc 1 725 29 is_stmt 0 view .LVU430
 1479 008a D4F8B832 		ldr	r3, [r4, #696]
 725:STM32F411/Middlewares/ST/STM32_USB_Device_Library/Core/Src/usbd_core.c ****             {
 1480              		.loc 1 725 32 view .LVU431
 1481 008e DA68     		ldr	r2, [r3, #12]
 725:STM32F411/Middlewares/ST/STM32_USB_Device_Library/Core/Src/usbd_core.c ****             {
 1482              		.loc 1 725 16 view .LVU432
 1483 0090 002A     		cmp	r2, #0
 1484 0092 D2D0     		beq	.L98
 727:STM32F411/Middlewares/ST/STM32_USB_Device_Library/Core/Src/usbd_core.c ****               pdev->pClass[0]->EP0_TxSent(pdev);
 1485              		.loc 1 727 15 is_stmt 1 view .LVU433
 727:STM32F411/Middlewares/ST/STM32_USB_Device_Library/Core/Src/usbd_core.c ****               pdev->pClass[0]->EP0_TxSent(pdev);
 1486              		.loc 1 727 29 is_stmt 0 view .LVU434
 1487 0094 0022     		movs	r2, #0
 1488 0096 C4F8D422 		str	r2, [r4, #724]
 728:STM32F411/Middlewares/ST/STM32_USB_Device_Library/Core/Src/usbd_core.c ****             }
 1489              		.loc 1 728 15 is_stmt 1 view .LVU435
 728:STM32F411/Middlewares/ST/STM32_USB_Device_Library/Core/Src/usbd_core.c ****             }
 1490              		.loc 1 728 30 is_stmt 0 view .LVU436
 1491 009a DB68     		ldr	r3, [r3, #12]
 728:STM32F411/Middlewares/ST/STM32_USB_Device_Library/Core/Src/usbd_core.c ****             }
 1492              		.loc 1 728 15 view .LVU437
 1493 009c 2046     		mov	r0, r4
 1494              	.LVL137:
 728:STM32F411/Middlewares/ST/STM32_USB_Device_Library/Core/Src/usbd_core.c ****             }
 1495              		.loc 1 728 15 view .LVU438
 1496 009e 9847     		blx	r3
 1497              	.LVL138:
 1498 00a0 CBE7     		b	.L98
 1499              	.LVL139:
 1500              	.L94:
 746:STM32F411/Middlewares/ST/STM32_USB_Device_Library/Core/Src/usbd_core.c **** 
 1501              		.loc 1 746 5 is_stmt 1 view .LVU439
 746:STM32F411/Middlewares/ST/STM32_USB_Device_Library/Core/Src/usbd_core.c **** 
 1502              		.loc 1 746 11 is_stmt 0 view .LVU440
 1503 00a2 41F08001 		orr	r1, r1, #128
 1504              	.LVL140:
 746:STM32F411/Middlewares/ST/STM32_USB_Device_Library/Core/Src/usbd_core.c **** 
 1505              		.loc 1 746 11 view .LVU441
 1506 00a6 FFF7FEFF 		bl	USBD_CoreFindEP
 1507              	.LVL141:
 748:STM32F411/Middlewares/ST/STM32_USB_Device_Library/Core/Src/usbd_core.c ****     {
 1508              		.loc 1 748 5 is_stmt 1 view .LVU442
 748:STM32F411/Middlewares/ST/STM32_USB_Device_Library/Core/Src/usbd_core.c ****     {
 1509              		.loc 1 748 8 is_stmt 0 view .LVU443
 1510 00aa 90B9     		cbnz	r0, .L100
 751:STM32F411/Middlewares/ST/STM32_USB_Device_Library/Core/Src/usbd_core.c ****       {
 1511              		.loc 1 751 7 is_stmt 1 view .LVU444
 751:STM32F411/Middlewares/ST/STM32_USB_Device_Library/Core/Src/usbd_core.c ****       {
 1512              		.loc 1 751 15 is_stmt 0 view .LVU445
 1513 00ac 94F89C32 		ldrb	r3, [r4, #668]	@ zero_extendqisi2
 1514 00b0 DBB2     		uxtb	r3, r3
 751:STM32F411/Middlewares/ST/STM32_USB_Device_Library/Core/Src/usbd_core.c ****       {
 1515              		.loc 1 751 10 view .LVU446
 1516 00b2 032B     		cmp	r3, #3
ARM GAS  /tmp/cc9vlpLu.s 			page 50


 1517 00b4 B5D1     		bne	.L99
 753:STM32F411/Middlewares/ST/STM32_USB_Device_Library/Core/Src/usbd_core.c ****         {
 1518              		.loc 1 753 9 is_stmt 1 view .LVU447
 753:STM32F411/Middlewares/ST/STM32_USB_Device_Library/Core/Src/usbd_core.c ****         {
 1519              		.loc 1 753 25 is_stmt 0 view .LVU448
 1520 00b6 00F1AE03 		add	r3, r0, #174
 1521 00ba 54F82330 		ldr	r3, [r4, r3, lsl #2]
 753:STM32F411/Middlewares/ST/STM32_USB_Device_Library/Core/Src/usbd_core.c ****         {
 1522              		.loc 1 753 30 view .LVU449
 1523 00be 5A69     		ldr	r2, [r3, #20]
 753:STM32F411/Middlewares/ST/STM32_USB_Device_Library/Core/Src/usbd_core.c ****         {
 1524              		.loc 1 753 12 view .LVU450
 1525 00c0 002A     		cmp	r2, #0
 1526 00c2 AED0     		beq	.L99
 755:STM32F411/Middlewares/ST/STM32_USB_Device_Library/Core/Src/usbd_core.c ****           ret = (USBD_StatusTypeDef)pdev->pClass[idx]->DataIn(pdev, epnum);
 1527              		.loc 1 755 11 is_stmt 1 view .LVU451
 755:STM32F411/Middlewares/ST/STM32_USB_Device_Library/Core/Src/usbd_core.c ****           ret = (USBD_StatusTypeDef)pdev->pClass[idx]->DataIn(pdev, epnum);
 1528              		.loc 1 755 25 is_stmt 0 view .LVU452
 1529 00c4 C4F8D402 		str	r0, [r4, #724]
 756:STM32F411/Middlewares/ST/STM32_USB_Device_Library/Core/Src/usbd_core.c **** 
 1530              		.loc 1 756 11 is_stmt 1 view .LVU453
 756:STM32F411/Middlewares/ST/STM32_USB_Device_Library/Core/Src/usbd_core.c **** 
 1531              		.loc 1 756 54 is_stmt 0 view .LVU454
 1532 00c8 5B69     		ldr	r3, [r3, #20]
 756:STM32F411/Middlewares/ST/STM32_USB_Device_Library/Core/Src/usbd_core.c **** 
 1533              		.loc 1 756 37 view .LVU455
 1534 00ca 2946     		mov	r1, r5
 1535 00cc 2046     		mov	r0, r4
 1536              	.LVL142:
 756:STM32F411/Middlewares/ST/STM32_USB_Device_Library/Core/Src/usbd_core.c **** 
 1537              		.loc 1 756 37 view .LVU456
 1538 00ce 9847     		blx	r3
 1539              	.LVL143:
 758:STM32F411/Middlewares/ST/STM32_USB_Device_Library/Core/Src/usbd_core.c ****           {
 1540              		.loc 1 758 11 is_stmt 1 view .LVU457
 1541 00d0 A7E7     		b	.L99
 1542              	.LVL144:
 1543              	.L100:
 767:STM32F411/Middlewares/ST/STM32_USB_Device_Library/Core/Src/usbd_core.c **** }
 1544              		.loc 1 767 10 is_stmt 0 view .LVU458
 1545 00d2 0020     		movs	r0, #0
 1546              	.LVL145:
 767:STM32F411/Middlewares/ST/STM32_USB_Device_Library/Core/Src/usbd_core.c **** }
 1547              		.loc 1 767 10 view .LVU459
 1548 00d4 A5E7     		b	.L99
 1549              		.cfi_endproc
 1550              	.LFE148:
 1552              		.section	.text.USBD_GetNextDesc,"ax",%progbits
 1553              		.align	1
 1554              		.global	USBD_GetNextDesc
 1555              		.syntax unified
 1556              		.thumb
 1557              		.thumb_func
 1559              	USBD_GetNextDesc:
 1560              	.LVL146:
 1561              	.LFB161:
1119:STM32F411/Middlewares/ST/STM32_USB_Device_Library/Core/Src/usbd_core.c **** 
ARM GAS  /tmp/cc9vlpLu.s 			page 51


1120:STM32F411/Middlewares/ST/STM32_USB_Device_Library/Core/Src/usbd_core.c **** #ifdef USE_USBD_COMPOSITE
1121:STM32F411/Middlewares/ST/STM32_USB_Device_Library/Core/Src/usbd_core.c **** /**
1122:STM32F411/Middlewares/ST/STM32_USB_Device_Library/Core/Src/usbd_core.c ****   * @brief  USBD_CoreGetEPAdd
1123:STM32F411/Middlewares/ST/STM32_USB_Device_Library/Core/Src/usbd_core.c ****   *         Get the endpoint address relative to a selected class
1124:STM32F411/Middlewares/ST/STM32_USB_Device_Library/Core/Src/usbd_core.c ****   * @param  pdev: device instance
1125:STM32F411/Middlewares/ST/STM32_USB_Device_Library/Core/Src/usbd_core.c ****   * @param  ep_dir: USBD_EP_IN or USBD_EP_OUT
1126:STM32F411/Middlewares/ST/STM32_USB_Device_Library/Core/Src/usbd_core.c ****   * @param  ep_type: USBD_EP_TYPE_CTRL, USBD_EP_TYPE_ISOC, USBD_EP_TYPE_BULK or USBD_EP_TYPE_INTR
1127:STM32F411/Middlewares/ST/STM32_USB_Device_Library/Core/Src/usbd_core.c ****   * @param  ClassId: The Class ID
1128:STM32F411/Middlewares/ST/STM32_USB_Device_Library/Core/Src/usbd_core.c ****   * @retval Address of the selected endpoint or 0xFFU if no endpoint found.
1129:STM32F411/Middlewares/ST/STM32_USB_Device_Library/Core/Src/usbd_core.c ****   */
1130:STM32F411/Middlewares/ST/STM32_USB_Device_Library/Core/Src/usbd_core.c **** uint8_t USBD_CoreGetEPAdd(USBD_HandleTypeDef *pdev, uint8_t ep_dir, uint8_t ep_type, uint8_t ClassI
1131:STM32F411/Middlewares/ST/STM32_USB_Device_Library/Core/Src/usbd_core.c **** {
1132:STM32F411/Middlewares/ST/STM32_USB_Device_Library/Core/Src/usbd_core.c ****   uint8_t idx;
1133:STM32F411/Middlewares/ST/STM32_USB_Device_Library/Core/Src/usbd_core.c **** 
1134:STM32F411/Middlewares/ST/STM32_USB_Device_Library/Core/Src/usbd_core.c ****   /* Find the EP address in the selected class table */
1135:STM32F411/Middlewares/ST/STM32_USB_Device_Library/Core/Src/usbd_core.c ****   for (idx = 0; idx < pdev->tclasslist[ClassId].NumEps; idx++)
1136:STM32F411/Middlewares/ST/STM32_USB_Device_Library/Core/Src/usbd_core.c ****   {
1137:STM32F411/Middlewares/ST/STM32_USB_Device_Library/Core/Src/usbd_core.c ****     if (((pdev->tclasslist[ClassId].Eps[idx].add & USBD_EP_IN) == ep_dir) && \
1138:STM32F411/Middlewares/ST/STM32_USB_Device_Library/Core/Src/usbd_core.c ****         (pdev->tclasslist[ClassId].Eps[idx].type == ep_type) && \
1139:STM32F411/Middlewares/ST/STM32_USB_Device_Library/Core/Src/usbd_core.c ****         (pdev->tclasslist[ClassId].Eps[idx].is_used != 0U))
1140:STM32F411/Middlewares/ST/STM32_USB_Device_Library/Core/Src/usbd_core.c ****     {
1141:STM32F411/Middlewares/ST/STM32_USB_Device_Library/Core/Src/usbd_core.c ****       return (pdev->tclasslist[ClassId].Eps[idx].add);
1142:STM32F411/Middlewares/ST/STM32_USB_Device_Library/Core/Src/usbd_core.c ****     }
1143:STM32F411/Middlewares/ST/STM32_USB_Device_Library/Core/Src/usbd_core.c ****   }
1144:STM32F411/Middlewares/ST/STM32_USB_Device_Library/Core/Src/usbd_core.c **** 
1145:STM32F411/Middlewares/ST/STM32_USB_Device_Library/Core/Src/usbd_core.c ****   /* If reaching this point, then no endpoint was found */
1146:STM32F411/Middlewares/ST/STM32_USB_Device_Library/Core/Src/usbd_core.c ****   return 0xFFU;
1147:STM32F411/Middlewares/ST/STM32_USB_Device_Library/Core/Src/usbd_core.c **** }
1148:STM32F411/Middlewares/ST/STM32_USB_Device_Library/Core/Src/usbd_core.c **** #endif /* USE_USBD_COMPOSITE */
1149:STM32F411/Middlewares/ST/STM32_USB_Device_Library/Core/Src/usbd_core.c **** 
1150:STM32F411/Middlewares/ST/STM32_USB_Device_Library/Core/Src/usbd_core.c **** /**
1151:STM32F411/Middlewares/ST/STM32_USB_Device_Library/Core/Src/usbd_core.c ****   * @brief  USBD_GetEpDesc
1152:STM32F411/Middlewares/ST/STM32_USB_Device_Library/Core/Src/usbd_core.c ****   *         This function return the Endpoint descriptor
1153:STM32F411/Middlewares/ST/STM32_USB_Device_Library/Core/Src/usbd_core.c ****   * @param  pdev: device instance
1154:STM32F411/Middlewares/ST/STM32_USB_Device_Library/Core/Src/usbd_core.c ****   * @param  pConfDesc:  pointer to Bos descriptor
1155:STM32F411/Middlewares/ST/STM32_USB_Device_Library/Core/Src/usbd_core.c ****   * @param  EpAddr:  endpoint address
1156:STM32F411/Middlewares/ST/STM32_USB_Device_Library/Core/Src/usbd_core.c ****   * @retval pointer to video endpoint descriptor
1157:STM32F411/Middlewares/ST/STM32_USB_Device_Library/Core/Src/usbd_core.c ****   */
1158:STM32F411/Middlewares/ST/STM32_USB_Device_Library/Core/Src/usbd_core.c **** void *USBD_GetEpDesc(uint8_t *pConfDesc, uint8_t EpAddr)
1159:STM32F411/Middlewares/ST/STM32_USB_Device_Library/Core/Src/usbd_core.c **** {
1160:STM32F411/Middlewares/ST/STM32_USB_Device_Library/Core/Src/usbd_core.c ****   USBD_DescHeaderTypeDef *pdesc = (USBD_DescHeaderTypeDef *)(void *)pConfDesc;
1161:STM32F411/Middlewares/ST/STM32_USB_Device_Library/Core/Src/usbd_core.c ****   USBD_ConfigDescTypeDef *desc = (USBD_ConfigDescTypeDef *)(void *)pConfDesc;
1162:STM32F411/Middlewares/ST/STM32_USB_Device_Library/Core/Src/usbd_core.c ****   USBD_EpDescTypeDef *pEpDesc = NULL;
1163:STM32F411/Middlewares/ST/STM32_USB_Device_Library/Core/Src/usbd_core.c ****   uint16_t ptr;
1164:STM32F411/Middlewares/ST/STM32_USB_Device_Library/Core/Src/usbd_core.c **** 
1165:STM32F411/Middlewares/ST/STM32_USB_Device_Library/Core/Src/usbd_core.c ****   if (desc->wTotalLength > desc->bLength)
1166:STM32F411/Middlewares/ST/STM32_USB_Device_Library/Core/Src/usbd_core.c ****   {
1167:STM32F411/Middlewares/ST/STM32_USB_Device_Library/Core/Src/usbd_core.c ****     ptr = desc->bLength;
1168:STM32F411/Middlewares/ST/STM32_USB_Device_Library/Core/Src/usbd_core.c **** 
1169:STM32F411/Middlewares/ST/STM32_USB_Device_Library/Core/Src/usbd_core.c ****     while (ptr < desc->wTotalLength)
1170:STM32F411/Middlewares/ST/STM32_USB_Device_Library/Core/Src/usbd_core.c ****     {
1171:STM32F411/Middlewares/ST/STM32_USB_Device_Library/Core/Src/usbd_core.c ****       pdesc = USBD_GetNextDesc((uint8_t *)pdesc, &ptr);
1172:STM32F411/Middlewares/ST/STM32_USB_Device_Library/Core/Src/usbd_core.c **** 
1173:STM32F411/Middlewares/ST/STM32_USB_Device_Library/Core/Src/usbd_core.c ****       if (pdesc->bDescriptorType == USB_DESC_TYPE_ENDPOINT)
1174:STM32F411/Middlewares/ST/STM32_USB_Device_Library/Core/Src/usbd_core.c ****       {
1175:STM32F411/Middlewares/ST/STM32_USB_Device_Library/Core/Src/usbd_core.c ****         pEpDesc = (USBD_EpDescTypeDef *)(void *)pdesc;
1176:STM32F411/Middlewares/ST/STM32_USB_Device_Library/Core/Src/usbd_core.c **** 
ARM GAS  /tmp/cc9vlpLu.s 			page 52


1177:STM32F411/Middlewares/ST/STM32_USB_Device_Library/Core/Src/usbd_core.c ****         if (pEpDesc->bEndpointAddress == EpAddr)
1178:STM32F411/Middlewares/ST/STM32_USB_Device_Library/Core/Src/usbd_core.c ****         {
1179:STM32F411/Middlewares/ST/STM32_USB_Device_Library/Core/Src/usbd_core.c ****           break;
1180:STM32F411/Middlewares/ST/STM32_USB_Device_Library/Core/Src/usbd_core.c ****         }
1181:STM32F411/Middlewares/ST/STM32_USB_Device_Library/Core/Src/usbd_core.c ****         else
1182:STM32F411/Middlewares/ST/STM32_USB_Device_Library/Core/Src/usbd_core.c ****         {
1183:STM32F411/Middlewares/ST/STM32_USB_Device_Library/Core/Src/usbd_core.c ****           pEpDesc = NULL;
1184:STM32F411/Middlewares/ST/STM32_USB_Device_Library/Core/Src/usbd_core.c ****         }
1185:STM32F411/Middlewares/ST/STM32_USB_Device_Library/Core/Src/usbd_core.c ****       }
1186:STM32F411/Middlewares/ST/STM32_USB_Device_Library/Core/Src/usbd_core.c ****     }
1187:STM32F411/Middlewares/ST/STM32_USB_Device_Library/Core/Src/usbd_core.c ****   }
1188:STM32F411/Middlewares/ST/STM32_USB_Device_Library/Core/Src/usbd_core.c **** 
1189:STM32F411/Middlewares/ST/STM32_USB_Device_Library/Core/Src/usbd_core.c ****   return (void *)pEpDesc;
1190:STM32F411/Middlewares/ST/STM32_USB_Device_Library/Core/Src/usbd_core.c **** }
1191:STM32F411/Middlewares/ST/STM32_USB_Device_Library/Core/Src/usbd_core.c **** 
1192:STM32F411/Middlewares/ST/STM32_USB_Device_Library/Core/Src/usbd_core.c **** /**
1193:STM32F411/Middlewares/ST/STM32_USB_Device_Library/Core/Src/usbd_core.c ****   * @brief  USBD_GetNextDesc
1194:STM32F411/Middlewares/ST/STM32_USB_Device_Library/Core/Src/usbd_core.c ****   *         This function return the next descriptor header
1195:STM32F411/Middlewares/ST/STM32_USB_Device_Library/Core/Src/usbd_core.c ****   * @param  buf: Buffer where the descriptor is available
1196:STM32F411/Middlewares/ST/STM32_USB_Device_Library/Core/Src/usbd_core.c ****   * @param  ptr: data pointer inside the descriptor
1197:STM32F411/Middlewares/ST/STM32_USB_Device_Library/Core/Src/usbd_core.c ****   * @retval next header
1198:STM32F411/Middlewares/ST/STM32_USB_Device_Library/Core/Src/usbd_core.c ****   */
1199:STM32F411/Middlewares/ST/STM32_USB_Device_Library/Core/Src/usbd_core.c **** USBD_DescHeaderTypeDef *USBD_GetNextDesc(uint8_t *pbuf, uint16_t *ptr)
1200:STM32F411/Middlewares/ST/STM32_USB_Device_Library/Core/Src/usbd_core.c **** {
 1562              		.loc 1 1200 1 is_stmt 1 view -0
 1563              		.cfi_startproc
 1564              		@ args = 0, pretend = 0, frame = 0
 1565              		@ frame_needed = 0, uses_anonymous_args = 0
 1566              		@ link register save eliminated.
1201:STM32F411/Middlewares/ST/STM32_USB_Device_Library/Core/Src/usbd_core.c ****   USBD_DescHeaderTypeDef *pnext = (USBD_DescHeaderTypeDef *)(void *)pbuf;
 1567              		.loc 1 1201 3 view .LVU461
1202:STM32F411/Middlewares/ST/STM32_USB_Device_Library/Core/Src/usbd_core.c **** 
1203:STM32F411/Middlewares/ST/STM32_USB_Device_Library/Core/Src/usbd_core.c ****   *ptr += pnext->bLength;
 1568              		.loc 1 1203 3 view .LVU462
 1569 0000 0B88     		ldrh	r3, [r1]
 1570              		.loc 1 1203 16 is_stmt 0 view .LVU463
 1571 0002 0278     		ldrb	r2, [r0]	@ zero_extendqisi2
 1572              		.loc 1 1203 8 view .LVU464
 1573 0004 1344     		add	r3, r3, r2
 1574 0006 0B80     		strh	r3, [r1]	@ movhi
1204:STM32F411/Middlewares/ST/STM32_USB_Device_Library/Core/Src/usbd_core.c ****   pnext = (USBD_DescHeaderTypeDef *)(void *)(pbuf + pnext->bLength);
 1575              		.loc 1 1204 3 is_stmt 1 view .LVU465
 1576              		.loc 1 1204 58 is_stmt 0 view .LVU466
 1577 0008 0378     		ldrb	r3, [r0]	@ zero_extendqisi2
 1578              	.LVL147:
1205:STM32F411/Middlewares/ST/STM32_USB_Device_Library/Core/Src/usbd_core.c **** 
1206:STM32F411/Middlewares/ST/STM32_USB_Device_Library/Core/Src/usbd_core.c ****   return (pnext);
 1579              		.loc 1 1206 3 is_stmt 1 view .LVU467
1207:STM32F411/Middlewares/ST/STM32_USB_Device_Library/Core/Src/usbd_core.c **** }
 1580              		.loc 1 1207 1 is_stmt 0 view .LVU468
 1581 000a 1844     		add	r0, r0, r3
 1582              	.LVL148:
 1583              		.loc 1 1207 1 view .LVU469
 1584 000c 7047     		bx	lr
 1585              		.cfi_endproc
 1586              	.LFE161:
 1588              		.section	.text.USBD_GetEpDesc,"ax",%progbits
ARM GAS  /tmp/cc9vlpLu.s 			page 53


 1589              		.align	1
 1590              		.global	USBD_GetEpDesc
 1591              		.syntax unified
 1592              		.thumb
 1593              		.thumb_func
 1595              	USBD_GetEpDesc:
 1596              	.LVL149:
 1597              	.LFB160:
1159:STM32F411/Middlewares/ST/STM32_USB_Device_Library/Core/Src/usbd_core.c ****   USBD_DescHeaderTypeDef *pdesc = (USBD_DescHeaderTypeDef *)(void *)pConfDesc;
 1598              		.loc 1 1159 1 is_stmt 1 view -0
 1599              		.cfi_startproc
 1600              		@ args = 0, pretend = 0, frame = 8
 1601              		@ frame_needed = 0, uses_anonymous_args = 0
1160:STM32F411/Middlewares/ST/STM32_USB_Device_Library/Core/Src/usbd_core.c ****   USBD_ConfigDescTypeDef *desc = (USBD_ConfigDescTypeDef *)(void *)pConfDesc;
 1602              		.loc 1 1160 3 view .LVU471
1161:STM32F411/Middlewares/ST/STM32_USB_Device_Library/Core/Src/usbd_core.c ****   USBD_EpDescTypeDef *pEpDesc = NULL;
 1603              		.loc 1 1161 3 view .LVU472
1162:STM32F411/Middlewares/ST/STM32_USB_Device_Library/Core/Src/usbd_core.c ****   uint16_t ptr;
 1604              		.loc 1 1162 3 view .LVU473
1163:STM32F411/Middlewares/ST/STM32_USB_Device_Library/Core/Src/usbd_core.c **** 
 1605              		.loc 1 1163 3 view .LVU474
1165:STM32F411/Middlewares/ST/STM32_USB_Device_Library/Core/Src/usbd_core.c ****   {
 1606              		.loc 1 1165 3 view .LVU475
1165:STM32F411/Middlewares/ST/STM32_USB_Device_Library/Core/Src/usbd_core.c ****   {
 1607              		.loc 1 1165 11 is_stmt 0 view .LVU476
 1608 0000 4288     		ldrh	r2, [r0, #2]	@ unaligned
1165:STM32F411/Middlewares/ST/STM32_USB_Device_Library/Core/Src/usbd_core.c ****   {
 1609              		.loc 1 1165 32 view .LVU477
 1610 0002 0378     		ldrb	r3, [r0]	@ zero_extendqisi2
1165:STM32F411/Middlewares/ST/STM32_USB_Device_Library/Core/Src/usbd_core.c ****   {
 1611              		.loc 1 1165 6 view .LVU478
 1612 0004 9A42     		cmp	r2, r3
 1613 0006 18D9     		bls	.L111
1159:STM32F411/Middlewares/ST/STM32_USB_Device_Library/Core/Src/usbd_core.c ****   USBD_DescHeaderTypeDef *pdesc = (USBD_DescHeaderTypeDef *)(void *)pConfDesc;
 1614              		.loc 1 1159 1 view .LVU479
 1615 0008 30B5     		push	{r4, r5, lr}
 1616              	.LCFI18:
 1617              		.cfi_def_cfa_offset 12
 1618              		.cfi_offset 4, -12
 1619              		.cfi_offset 5, -8
 1620              		.cfi_offset 14, -4
 1621 000a 83B0     		sub	sp, sp, #12
 1622              	.LCFI19:
 1623              		.cfi_def_cfa_offset 24
 1624 000c 0446     		mov	r4, r0
 1625 000e 0D46     		mov	r5, r1
1167:STM32F411/Middlewares/ST/STM32_USB_Device_Library/Core/Src/usbd_core.c **** 
 1626              		.loc 1 1167 5 is_stmt 1 view .LVU480
1167:STM32F411/Middlewares/ST/STM32_USB_Device_Library/Core/Src/usbd_core.c **** 
 1627              		.loc 1 1167 9 is_stmt 0 view .LVU481
 1628 0010 ADF80630 		strh	r3, [sp, #6]	@ movhi
1169:STM32F411/Middlewares/ST/STM32_USB_Device_Library/Core/Src/usbd_core.c ****     {
 1629              		.loc 1 1169 5 is_stmt 1 view .LVU482
 1630              	.LVL150:
 1631              	.L109:
1169:STM32F411/Middlewares/ST/STM32_USB_Device_Library/Core/Src/usbd_core.c ****     {
 1632              		.loc 1 1169 16 view .LVU483
ARM GAS  /tmp/cc9vlpLu.s 			page 54


1169:STM32F411/Middlewares/ST/STM32_USB_Device_Library/Core/Src/usbd_core.c ****     {
 1633              		.loc 1 1169 22 is_stmt 0 view .LVU484
 1634 0014 6388     		ldrh	r3, [r4, #2]	@ unaligned
1169:STM32F411/Middlewares/ST/STM32_USB_Device_Library/Core/Src/usbd_core.c ****     {
 1635              		.loc 1 1169 16 view .LVU485
 1636 0016 BDF80620 		ldrh	r2, [sp, #6]
 1637 001a 9A42     		cmp	r2, r3
 1638 001c 0AD2     		bcs	.L116
1171:STM32F411/Middlewares/ST/STM32_USB_Device_Library/Core/Src/usbd_core.c **** 
 1639              		.loc 1 1171 7 is_stmt 1 view .LVU486
1171:STM32F411/Middlewares/ST/STM32_USB_Device_Library/Core/Src/usbd_core.c **** 
 1640              		.loc 1 1171 15 is_stmt 0 view .LVU487
 1641 001e 0DF10601 		add	r1, sp, #6
 1642 0022 FFF7FEFF 		bl	USBD_GetNextDesc
 1643              	.LVL151:
1173:STM32F411/Middlewares/ST/STM32_USB_Device_Library/Core/Src/usbd_core.c ****       {
 1644              		.loc 1 1173 7 is_stmt 1 view .LVU488
1173:STM32F411/Middlewares/ST/STM32_USB_Device_Library/Core/Src/usbd_core.c ****       {
 1645              		.loc 1 1173 16 is_stmt 0 view .LVU489
 1646 0026 4378     		ldrb	r3, [r0, #1]	@ zero_extendqisi2
1173:STM32F411/Middlewares/ST/STM32_USB_Device_Library/Core/Src/usbd_core.c ****       {
 1647              		.loc 1 1173 10 view .LVU490
 1648 0028 052B     		cmp	r3, #5
 1649 002a F3D1     		bne	.L109
1175:STM32F411/Middlewares/ST/STM32_USB_Device_Library/Core/Src/usbd_core.c **** 
 1650              		.loc 1 1175 9 is_stmt 1 view .LVU491
 1651              	.LVL152:
1177:STM32F411/Middlewares/ST/STM32_USB_Device_Library/Core/Src/usbd_core.c ****         {
 1652              		.loc 1 1177 9 view .LVU492
1177:STM32F411/Middlewares/ST/STM32_USB_Device_Library/Core/Src/usbd_core.c ****         {
 1653              		.loc 1 1177 20 is_stmt 0 view .LVU493
 1654 002c 8378     		ldrb	r3, [r0, #2]	@ zero_extendqisi2
1177:STM32F411/Middlewares/ST/STM32_USB_Device_Library/Core/Src/usbd_core.c ****         {
 1655              		.loc 1 1177 12 view .LVU494
 1656 002e AB42     		cmp	r3, r5
 1657 0030 F0D1     		bne	.L109
 1658 0032 00E0     		b	.L107
 1659              	.LVL153:
 1660              	.L116:
1177:STM32F411/Middlewares/ST/STM32_USB_Device_Library/Core/Src/usbd_core.c ****         {
 1661              		.loc 1 1177 12 view .LVU495
 1662 0034 0020     		movs	r0, #0
 1663              	.LVL154:
 1664              	.L107:
1190:STM32F411/Middlewares/ST/STM32_USB_Device_Library/Core/Src/usbd_core.c **** 
 1665              		.loc 1 1190 1 view .LVU496
 1666 0036 03B0     		add	sp, sp, #12
 1667              	.LCFI20:
 1668              		.cfi_def_cfa_offset 12
 1669              		@ sp needed
 1670 0038 30BD     		pop	{r4, r5, pc}
 1671              	.LVL155:
 1672              	.L111:
 1673              	.LCFI21:
 1674              		.cfi_def_cfa_offset 0
 1675              		.cfi_restore 4
 1676              		.cfi_restore 5
ARM GAS  /tmp/cc9vlpLu.s 			page 55


 1677              		.cfi_restore 14
1162:STM32F411/Middlewares/ST/STM32_USB_Device_Library/Core/Src/usbd_core.c ****   uint16_t ptr;
 1678              		.loc 1 1162 23 view .LVU497
 1679 003a 0020     		movs	r0, #0
 1680              	.LVL156:
1189:STM32F411/Middlewares/ST/STM32_USB_Device_Library/Core/Src/usbd_core.c **** }
 1681              		.loc 1 1189 3 is_stmt 1 view .LVU498
1190:STM32F411/Middlewares/ST/STM32_USB_Device_Library/Core/Src/usbd_core.c **** 
 1682              		.loc 1 1190 1 is_stmt 0 view .LVU499
 1683 003c 7047     		bx	lr
 1684              		.cfi_endproc
 1685              	.LFE160:
 1687              		.text
 1688              	.Letext0:
 1689              		.file 2 "/usr/lib/gcc/arm-none-eabi/13.2.1/include/stdint.h"
 1690              		.file 3 "STM32F411/Middlewares/ST/STM32_USB_Device_Library/Core/Inc/usbd_def.h"
 1691              		.file 4 "STM32F411/Middlewares/ST/STM32_USB_Device_Library/Core/Inc/usbd_core.h"
 1692              		.file 5 "STM32F411/Middlewares/ST/STM32_USB_Device_Library/Core/Inc/usbd_ioreq.h"
 1693              		.file 6 "STM32F411/Middlewares/ST/STM32_USB_Device_Library/Core/Inc/usbd_ctlreq.h"
 1694              		.file 7 "App/utils/inc/utils.h"
ARM GAS  /tmp/cc9vlpLu.s 			page 56

